
Pyrkon_F031K6.elf:     file format elf32-littlearm

Sections:
Idx Name          Size      VMA       LMA       File off  Algn
  0 .isr_vector   000000c0  08000000  08000000  00010000  2**0
                  CONTENTS, ALLOC, LOAD, READONLY, DATA
  1 .text         00001fbc  080000c0  080000c0  000100c0  2**2
                  CONTENTS, ALLOC, LOAD, READONLY, CODE
  2 .rodata       000000b4  0800207c  0800207c  0001207c  2**0
                  CONTENTS, ALLOC, LOAD, READONLY, DATA
  3 .ARM.extab    00000000  08002130  08002130  00020018  2**0
                  CONTENTS
  4 .ARM          00000000  08002130  08002130  00020018  2**0
                  CONTENTS
  5 .preinit_array 00000000  08002130  08002130  00020018  2**0
                  CONTENTS, ALLOC, LOAD, DATA
  6 .init_array   00000004  08002130  08002130  00012130  2**2
                  CONTENTS, ALLOC, LOAD, DATA
  7 .fini_array   00000004  08002134  08002134  00012134  2**2
                  CONTENTS, ALLOC, LOAD, DATA
  8 .data         00000018  20000000  08002138  00020000  2**2
                  CONTENTS, ALLOC, LOAD, DATA
  9 .bss          000006ac  20000018  08002150  00020018  2**2
                  ALLOC
 10 ._user_heap_stack 00000304  200006c4  08002150  000206c4  2**0
                  ALLOC
 11 .ARM.attributes 00000028  00000000  00000000  00020018  2**0
                  CONTENTS, READONLY
 12 .comment      00000050  00000000  00000000  00020040  2**0
                  CONTENTS, READONLY
 13 .debug_frame  00000094  00000000  00000000  00020090  2**2
                  CONTENTS, READONLY, DEBUGGING, OCTETS

Disassembly of section .text:

080000c0 <__do_global_dtors_aux>:
 80000c0:	b510      	push	{r4, lr}
 80000c2:	4c06      	ldr	r4, [pc, #24]	; (80000dc <__do_global_dtors_aux+0x1c>)
 80000c4:	7823      	ldrb	r3, [r4, #0]
 80000c6:	2b00      	cmp	r3, #0
 80000c8:	d107      	bne.n	80000da <__do_global_dtors_aux+0x1a>
 80000ca:	4b05      	ldr	r3, [pc, #20]	; (80000e0 <__do_global_dtors_aux+0x20>)
 80000cc:	2b00      	cmp	r3, #0
 80000ce:	d002      	beq.n	80000d6 <__do_global_dtors_aux+0x16>
 80000d0:	4804      	ldr	r0, [pc, #16]	; (80000e4 <__do_global_dtors_aux+0x24>)
 80000d2:	e000      	b.n	80000d6 <__do_global_dtors_aux+0x16>
 80000d4:	bf00      	nop
 80000d6:	2301      	movs	r3, #1
 80000d8:	7023      	strb	r3, [r4, #0]
 80000da:	bd10      	pop	{r4, pc}
 80000dc:	20000018 	.word	0x20000018
 80000e0:	00000000 	.word	0x00000000
 80000e4:	08002064 	.word	0x08002064

080000e8 <frame_dummy>:
 80000e8:	4b04      	ldr	r3, [pc, #16]	; (80000fc <frame_dummy+0x14>)
 80000ea:	b510      	push	{r4, lr}
 80000ec:	2b00      	cmp	r3, #0
 80000ee:	d003      	beq.n	80000f8 <frame_dummy+0x10>
 80000f0:	4903      	ldr	r1, [pc, #12]	; (8000100 <frame_dummy+0x18>)
 80000f2:	4804      	ldr	r0, [pc, #16]	; (8000104 <frame_dummy+0x1c>)
 80000f4:	e000      	b.n	80000f8 <frame_dummy+0x10>
 80000f6:	bf00      	nop
 80000f8:	bd10      	pop	{r4, pc}
 80000fa:	46c0      	nop			; (mov r8, r8)
 80000fc:	00000000 	.word	0x00000000
 8000100:	2000001c 	.word	0x2000001c
 8000104:	08002064 	.word	0x08002064

08000108 <__gnu_thumb1_case_sqi>:
 8000108:	b402      	push	{r1}
 800010a:	4671      	mov	r1, lr
 800010c:	0849      	lsrs	r1, r1, #1
 800010e:	0049      	lsls	r1, r1, #1
 8000110:	5609      	ldrsb	r1, [r1, r0]
 8000112:	0049      	lsls	r1, r1, #1
 8000114:	448e      	add	lr, r1
 8000116:	bc02      	pop	{r1}
 8000118:	4770      	bx	lr
 800011a:	46c0      	nop			; (mov r8, r8)

0800011c <__gnu_thumb1_case_uqi>:
 800011c:	b402      	push	{r1}
 800011e:	4671      	mov	r1, lr
 8000120:	0849      	lsrs	r1, r1, #1
 8000122:	0049      	lsls	r1, r1, #1
 8000124:	5c09      	ldrb	r1, [r1, r0]
 8000126:	0049      	lsls	r1, r1, #1
 8000128:	448e      	add	lr, r1
 800012a:	bc02      	pop	{r1}
 800012c:	4770      	bx	lr
 800012e:	46c0      	nop			; (mov r8, r8)

08000130 <__udivsi3>:
 8000130:	2200      	movs	r2, #0
 8000132:	0843      	lsrs	r3, r0, #1
 8000134:	428b      	cmp	r3, r1
 8000136:	d374      	bcc.n	8000222 <__udivsi3+0xf2>
 8000138:	0903      	lsrs	r3, r0, #4
 800013a:	428b      	cmp	r3, r1
 800013c:	d35f      	bcc.n	80001fe <__udivsi3+0xce>
 800013e:	0a03      	lsrs	r3, r0, #8
 8000140:	428b      	cmp	r3, r1
 8000142:	d344      	bcc.n	80001ce <__udivsi3+0x9e>
 8000144:	0b03      	lsrs	r3, r0, #12
 8000146:	428b      	cmp	r3, r1
 8000148:	d328      	bcc.n	800019c <__udivsi3+0x6c>
 800014a:	0c03      	lsrs	r3, r0, #16
 800014c:	428b      	cmp	r3, r1
 800014e:	d30d      	bcc.n	800016c <__udivsi3+0x3c>
 8000150:	22ff      	movs	r2, #255	; 0xff
 8000152:	0209      	lsls	r1, r1, #8
 8000154:	ba12      	rev	r2, r2
 8000156:	0c03      	lsrs	r3, r0, #16
 8000158:	428b      	cmp	r3, r1
 800015a:	d302      	bcc.n	8000162 <__udivsi3+0x32>
 800015c:	1212      	asrs	r2, r2, #8
 800015e:	0209      	lsls	r1, r1, #8
 8000160:	d065      	beq.n	800022e <__udivsi3+0xfe>
 8000162:	0b03      	lsrs	r3, r0, #12
 8000164:	428b      	cmp	r3, r1
 8000166:	d319      	bcc.n	800019c <__udivsi3+0x6c>
 8000168:	e000      	b.n	800016c <__udivsi3+0x3c>
 800016a:	0a09      	lsrs	r1, r1, #8
 800016c:	0bc3      	lsrs	r3, r0, #15
 800016e:	428b      	cmp	r3, r1
 8000170:	d301      	bcc.n	8000176 <__udivsi3+0x46>
 8000172:	03cb      	lsls	r3, r1, #15
 8000174:	1ac0      	subs	r0, r0, r3
 8000176:	4152      	adcs	r2, r2
 8000178:	0b83      	lsrs	r3, r0, #14
 800017a:	428b      	cmp	r3, r1
 800017c:	d301      	bcc.n	8000182 <__udivsi3+0x52>
 800017e:	038b      	lsls	r3, r1, #14
 8000180:	1ac0      	subs	r0, r0, r3
 8000182:	4152      	adcs	r2, r2
 8000184:	0b43      	lsrs	r3, r0, #13
 8000186:	428b      	cmp	r3, r1
 8000188:	d301      	bcc.n	800018e <__udivsi3+0x5e>
 800018a:	034b      	lsls	r3, r1, #13
 800018c:	1ac0      	subs	r0, r0, r3
 800018e:	4152      	adcs	r2, r2
 8000190:	0b03      	lsrs	r3, r0, #12
 8000192:	428b      	cmp	r3, r1
 8000194:	d301      	bcc.n	800019a <__udivsi3+0x6a>
 8000196:	030b      	lsls	r3, r1, #12
 8000198:	1ac0      	subs	r0, r0, r3
 800019a:	4152      	adcs	r2, r2
 800019c:	0ac3      	lsrs	r3, r0, #11
 800019e:	428b      	cmp	r3, r1
 80001a0:	d301      	bcc.n	80001a6 <__udivsi3+0x76>
 80001a2:	02cb      	lsls	r3, r1, #11
 80001a4:	1ac0      	subs	r0, r0, r3
 80001a6:	4152      	adcs	r2, r2
 80001a8:	0a83      	lsrs	r3, r0, #10
 80001aa:	428b      	cmp	r3, r1
 80001ac:	d301      	bcc.n	80001b2 <__udivsi3+0x82>
 80001ae:	028b      	lsls	r3, r1, #10
 80001b0:	1ac0      	subs	r0, r0, r3
 80001b2:	4152      	adcs	r2, r2
 80001b4:	0a43      	lsrs	r3, r0, #9
 80001b6:	428b      	cmp	r3, r1
 80001b8:	d301      	bcc.n	80001be <__udivsi3+0x8e>
 80001ba:	024b      	lsls	r3, r1, #9
 80001bc:	1ac0      	subs	r0, r0, r3
 80001be:	4152      	adcs	r2, r2
 80001c0:	0a03      	lsrs	r3, r0, #8
 80001c2:	428b      	cmp	r3, r1
 80001c4:	d301      	bcc.n	80001ca <__udivsi3+0x9a>
 80001c6:	020b      	lsls	r3, r1, #8
 80001c8:	1ac0      	subs	r0, r0, r3
 80001ca:	4152      	adcs	r2, r2
 80001cc:	d2cd      	bcs.n	800016a <__udivsi3+0x3a>
 80001ce:	09c3      	lsrs	r3, r0, #7
 80001d0:	428b      	cmp	r3, r1
 80001d2:	d301      	bcc.n	80001d8 <__udivsi3+0xa8>
 80001d4:	01cb      	lsls	r3, r1, #7
 80001d6:	1ac0      	subs	r0, r0, r3
 80001d8:	4152      	adcs	r2, r2
 80001da:	0983      	lsrs	r3, r0, #6
 80001dc:	428b      	cmp	r3, r1
 80001de:	d301      	bcc.n	80001e4 <__udivsi3+0xb4>
 80001e0:	018b      	lsls	r3, r1, #6
 80001e2:	1ac0      	subs	r0, r0, r3
 80001e4:	4152      	adcs	r2, r2
 80001e6:	0943      	lsrs	r3, r0, #5
 80001e8:	428b      	cmp	r3, r1
 80001ea:	d301      	bcc.n	80001f0 <__udivsi3+0xc0>
 80001ec:	014b      	lsls	r3, r1, #5
 80001ee:	1ac0      	subs	r0, r0, r3
 80001f0:	4152      	adcs	r2, r2
 80001f2:	0903      	lsrs	r3, r0, #4
 80001f4:	428b      	cmp	r3, r1
 80001f6:	d301      	bcc.n	80001fc <__udivsi3+0xcc>
 80001f8:	010b      	lsls	r3, r1, #4
 80001fa:	1ac0      	subs	r0, r0, r3
 80001fc:	4152      	adcs	r2, r2
 80001fe:	08c3      	lsrs	r3, r0, #3
 8000200:	428b      	cmp	r3, r1
 8000202:	d301      	bcc.n	8000208 <__udivsi3+0xd8>
 8000204:	00cb      	lsls	r3, r1, #3
 8000206:	1ac0      	subs	r0, r0, r3
 8000208:	4152      	adcs	r2, r2
 800020a:	0883      	lsrs	r3, r0, #2
 800020c:	428b      	cmp	r3, r1
 800020e:	d301      	bcc.n	8000214 <__udivsi3+0xe4>
 8000210:	008b      	lsls	r3, r1, #2
 8000212:	1ac0      	subs	r0, r0, r3
 8000214:	4152      	adcs	r2, r2
 8000216:	0843      	lsrs	r3, r0, #1
 8000218:	428b      	cmp	r3, r1
 800021a:	d301      	bcc.n	8000220 <__udivsi3+0xf0>
 800021c:	004b      	lsls	r3, r1, #1
 800021e:	1ac0      	subs	r0, r0, r3
 8000220:	4152      	adcs	r2, r2
 8000222:	1a41      	subs	r1, r0, r1
 8000224:	d200      	bcs.n	8000228 <__udivsi3+0xf8>
 8000226:	4601      	mov	r1, r0
 8000228:	4152      	adcs	r2, r2
 800022a:	4610      	mov	r0, r2
 800022c:	4770      	bx	lr
 800022e:	e7ff      	b.n	8000230 <__udivsi3+0x100>
 8000230:	b501      	push	{r0, lr}
 8000232:	2000      	movs	r0, #0
 8000234:	f000 f806 	bl	8000244 <__aeabi_idiv0>
 8000238:	bd02      	pop	{r1, pc}
 800023a:	46c0      	nop			; (mov r8, r8)

0800023c <__aeabi_uidivmod>:
 800023c:	2900      	cmp	r1, #0
 800023e:	d0f7      	beq.n	8000230 <__udivsi3+0x100>
 8000240:	e776      	b.n	8000130 <__udivsi3>
 8000242:	4770      	bx	lr

08000244 <__aeabi_idiv0>:
 8000244:	4770      	bx	lr
 8000246:	46c0      	nop			; (mov r8, r8)

08000248 <SystemClock_Config>:
 8000248:	b570      	push	{r4, r5, r6, lr}
 800024a:	2610      	movs	r6, #16
 800024c:	b094      	sub	sp, #80	; 0x50
 800024e:	222c      	movs	r2, #44	; 0x2c
 8000250:	2100      	movs	r1, #0
 8000252:	a809      	add	r0, sp, #36	; 0x24
 8000254:	f001 fefd 	bl	8002052 <memset>
 8000258:	0032      	movs	r2, r6
 800025a:	2100      	movs	r1, #0
 800025c:	4668      	mov	r0, sp
 800025e:	f001 fef8 	bl	8002052 <memset>
 8000262:	2100      	movs	r1, #0
 8000264:	0032      	movs	r2, r6
 8000266:	a804      	add	r0, sp, #16
 8000268:	f001 fef3 	bl	8002052 <memset>
 800026c:	23c0      	movs	r3, #192	; 0xc0
 800026e:	2502      	movs	r5, #2
 8000270:	2401      	movs	r4, #1
 8000272:	031b      	lsls	r3, r3, #12
 8000274:	a808      	add	r0, sp, #32
 8000276:	9508      	str	r5, [sp, #32]
 8000278:	940b      	str	r4, [sp, #44]	; 0x2c
 800027a:	960c      	str	r6, [sp, #48]	; 0x30
 800027c:	9510      	str	r5, [sp, #64]	; 0x40
 800027e:	9312      	str	r3, [sp, #72]	; 0x48
 8000280:	f000 fd8e 	bl	8000da0 <HAL_RCC_OscConfig>
 8000284:	1e01      	subs	r1, r0, #0
 8000286:	d001      	beq.n	800028c <SystemClock_Config+0x44>
 8000288:	b672      	cpsid	i
 800028a:	e7fe      	b.n	800028a <SystemClock_Config+0x42>
 800028c:	2307      	movs	r3, #7
 800028e:	9002      	str	r0, [sp, #8]
 8000290:	9003      	str	r0, [sp, #12]
 8000292:	4668      	mov	r0, sp
 8000294:	9300      	str	r3, [sp, #0]
 8000296:	9501      	str	r5, [sp, #4]
 8000298:	f000 ffba 	bl	8001210 <HAL_RCC_ClockConfig>
 800029c:	2800      	cmp	r0, #0
 800029e:	d001      	beq.n	80002a4 <SystemClock_Config+0x5c>
 80002a0:	b672      	cpsid	i
 80002a2:	e7fe      	b.n	80002a2 <SystemClock_Config+0x5a>
 80002a4:	9006      	str	r0, [sp, #24]
 80002a6:	a804      	add	r0, sp, #16
 80002a8:	9404      	str	r4, [sp, #16]
 80002aa:	f001 f845 	bl	8001338 <HAL_RCCEx_PeriphCLKConfig>
 80002ae:	2800      	cmp	r0, #0
 80002b0:	d001      	beq.n	80002b6 <SystemClock_Config+0x6e>
 80002b2:	b672      	cpsid	i
 80002b4:	e7fe      	b.n	80002b4 <SystemClock_Config+0x6c>
 80002b6:	b014      	add	sp, #80	; 0x50
 80002b8:	bd70      	pop	{r4, r5, r6, pc}
	...

080002bc <setPixelColor>:
 80002bc:	b5f0      	push	{r4, r5, r6, r7, lr}
 80002be:	2780      	movs	r7, #128	; 0x80
 80002c0:	2680      	movs	r6, #128	; 0x80
 80002c2:	03ff      	lsls	r7, r7, #15
 80002c4:	0336      	lsls	r6, r6, #12
 80002c6:	03cc      	lsls	r4, r1, #15
 80002c8:	034d      	lsls	r5, r1, #13
 80002ca:	4035      	ands	r5, r6
 80002cc:	403c      	ands	r4, r7
 80002ce:	432c      	orrs	r4, r5
 80002d0:	2580      	movs	r5, #128	; 0x80
 80002d2:	b087      	sub	sp, #28
 80002d4:	9005      	str	r0, [sp, #20]
 80002d6:	026d      	lsls	r5, r5, #9
 80002d8:	02c8      	lsls	r0, r1, #11
 80002da:	4028      	ands	r0, r5
 80002dc:	2580      	movs	r5, #128	; 0x80
 80002de:	4304      	orrs	r4, r0
 80002e0:	01ad      	lsls	r5, r5, #6
 80002e2:	0248      	lsls	r0, r1, #9
 80002e4:	4028      	ands	r0, r5
 80002e6:	2580      	movs	r5, #128	; 0x80
 80002e8:	4320      	orrs	r0, r4
 80002ea:	00ed      	lsls	r5, r5, #3
 80002ec:	01cc      	lsls	r4, r1, #7
 80002ee:	402c      	ands	r4, r5
 80002f0:	2580      	movs	r5, #128	; 0x80
 80002f2:	4320      	orrs	r0, r4
 80002f4:	014c      	lsls	r4, r1, #5
 80002f6:	402c      	ands	r4, r5
 80002f8:	4304      	orrs	r4, r0
 80002fa:	00c8      	lsls	r0, r1, #3
 80002fc:	4684      	mov	ip, r0
 80002fe:	2010      	movs	r0, #16
 8000300:	4665      	mov	r5, ip
 8000302:	4005      	ands	r5, r0
 8000304:	4325      	orrs	r5, r4
 8000306:	2402      	movs	r4, #2
 8000308:	0049      	lsls	r1, r1, #1
 800030a:	46a4      	mov	ip, r4
 800030c:	4021      	ands	r1, r4
 800030e:	002c      	movs	r4, r5
 8000310:	9500      	str	r5, [sp, #0]
 8000312:	2580      	movs	r5, #128	; 0x80
 8000314:	430c      	orrs	r4, r1
 8000316:	9402      	str	r4, [sp, #8]
 8000318:	0351      	lsls	r1, r2, #13
 800031a:	03d4      	lsls	r4, r2, #15
 800031c:	403c      	ands	r4, r7
 800031e:	4031      	ands	r1, r6
 8000320:	4321      	orrs	r1, r4
 8000322:	026d      	lsls	r5, r5, #9
 8000324:	02d4      	lsls	r4, r2, #11
 8000326:	402c      	ands	r4, r5
 8000328:	2580      	movs	r5, #128	; 0x80
 800032a:	430c      	orrs	r4, r1
 800032c:	01ad      	lsls	r5, r5, #6
 800032e:	0251      	lsls	r1, r2, #9
 8000330:	4029      	ands	r1, r5
 8000332:	2580      	movs	r5, #128	; 0x80
 8000334:	430c      	orrs	r4, r1
 8000336:	00ed      	lsls	r5, r5, #3
 8000338:	01d1      	lsls	r1, r2, #7
 800033a:	4029      	ands	r1, r5
 800033c:	2580      	movs	r5, #128	; 0x80
 800033e:	4321      	orrs	r1, r4
 8000340:	0154      	lsls	r4, r2, #5
 8000342:	402c      	ands	r4, r5
 8000344:	4321      	orrs	r1, r4
 8000346:	00d4      	lsls	r4, r2, #3
 8000348:	4004      	ands	r4, r0
 800034a:	430c      	orrs	r4, r1
 800034c:	4661      	mov	r1, ip
 800034e:	0052      	lsls	r2, r2, #1
 8000350:	400a      	ands	r2, r1
 8000352:	4322      	orrs	r2, r4
 8000354:	9203      	str	r2, [sp, #12]
 8000356:	03da      	lsls	r2, r3, #15
 8000358:	4017      	ands	r7, r2
 800035a:	035a      	lsls	r2, r3, #13
 800035c:	4032      	ands	r2, r6
 800035e:	4317      	orrs	r7, r2
 8000360:	2280      	movs	r2, #128	; 0x80
 8000362:	2580      	movs	r5, #128	; 0x80
 8000364:	02d9      	lsls	r1, r3, #11
 8000366:	0252      	lsls	r2, r2, #9
 8000368:	4011      	ands	r1, r2
 800036a:	01ad      	lsls	r5, r5, #6
 800036c:	025a      	lsls	r2, r3, #9
 800036e:	402a      	ands	r2, r5
 8000370:	2580      	movs	r5, #128	; 0x80
 8000372:	01de      	lsls	r6, r3, #7
 8000374:	00ed      	lsls	r5, r5, #3
 8000376:	402e      	ands	r6, r5
 8000378:	2580      	movs	r5, #128	; 0x80
 800037a:	430f      	orrs	r7, r1
 800037c:	4317      	orrs	r7, r2
 800037e:	00da      	lsls	r2, r3, #3
 8000380:	4010      	ands	r0, r2
 8000382:	4662      	mov	r2, ip
 8000384:	0159      	lsls	r1, r3, #5
 8000386:	4029      	ands	r1, r5
 8000388:	4337      	orrs	r7, r6
 800038a:	430f      	orrs	r7, r1
 800038c:	4338      	orrs	r0, r7
 800038e:	005b      	lsls	r3, r3, #1
 8000390:	4013      	ands	r3, r2
 8000392:	0002      	movs	r2, r0
 8000394:	431a      	orrs	r2, r3
 8000396:	9204      	str	r2, [sp, #16]
 8000398:	22a2      	movs	r2, #162	; 0xa2
 800039a:	9001      	str	r0, [sp, #4]
 800039c:	2009      	movs	r0, #9
 800039e:	276e      	movs	r7, #110	; 0x6e
 80003a0:	492e      	ldr	r1, [pc, #184]	; (800045c <setPixelColor+0x1a0>)
 80003a2:	00d2      	lsls	r2, r2, #3
 80003a4:	780d      	ldrb	r5, [r1, #0]
 80003a6:	9b05      	ldr	r3, [sp, #20]
 80003a8:	4355      	muls	r5, r2
 80003aa:	4358      	muls	r0, r3
 80003ac:	4b2c      	ldr	r3, [pc, #176]	; (8000460 <setPixelColor+0x1a4>)
 80003ae:	0c26      	lsrs	r6, r4, #16
 80003b0:	427f      	negs	r7, r7
 80003b2:	195d      	adds	r5, r3, r5
 80003b4:	433e      	orrs	r6, r7
 80003b6:	542e      	strb	r6, [r5, r0]
 80003b8:	2649      	movs	r6, #73	; 0x49
 80003ba:	780d      	ldrb	r5, [r1, #0]
 80003bc:	1c47      	adds	r7, r0, #1
 80003be:	4355      	muls	r5, r2
 80003c0:	0a24      	lsrs	r4, r4, #8
 80003c2:	195d      	adds	r5, r3, r5
 80003c4:	4334      	orrs	r4, r6
 80003c6:	b2bf      	uxth	r7, r7
 80003c8:	55ec      	strb	r4, [r5, r7]
 80003ca:	780c      	ldrb	r4, [r1, #0]
 80003cc:	9d03      	ldr	r5, [sp, #12]
 80003ce:	4354      	muls	r4, r2
 80003d0:	1c87      	adds	r7, r0, #2
 80003d2:	3e25      	subs	r6, #37	; 0x25
 80003d4:	191c      	adds	r4, r3, r4
 80003d6:	4335      	orrs	r5, r6
 80003d8:	b2bf      	uxth	r7, r7
 80003da:	55e5      	strb	r5, [r4, r7]
 80003dc:	256e      	movs	r5, #110	; 0x6e
 80003de:	780c      	ldrb	r4, [r1, #0]
 80003e0:	9e00      	ldr	r6, [sp, #0]
 80003e2:	4354      	muls	r4, r2
 80003e4:	426d      	negs	r5, r5
 80003e6:	1cc7      	adds	r7, r0, #3
 80003e8:	0c36      	lsrs	r6, r6, #16
 80003ea:	191c      	adds	r4, r3, r4
 80003ec:	432e      	orrs	r6, r5
 80003ee:	b2bf      	uxth	r7, r7
 80003f0:	55e6      	strb	r6, [r4, r7]
 80003f2:	1d04      	adds	r4, r0, #4
 80003f4:	b2a4      	uxth	r4, r4
 80003f6:	46a4      	mov	ip, r4
 80003f8:	2649      	movs	r6, #73	; 0x49
 80003fa:	9c00      	ldr	r4, [sp, #0]
 80003fc:	780f      	ldrb	r7, [r1, #0]
 80003fe:	0a24      	lsrs	r4, r4, #8
 8000400:	4334      	orrs	r4, r6
 8000402:	4666      	mov	r6, ip
 8000404:	4357      	muls	r7, r2
 8000406:	19df      	adds	r7, r3, r7
 8000408:	55bc      	strb	r4, [r7, r6]
 800040a:	780c      	ldrb	r4, [r1, #0]
 800040c:	9e02      	ldr	r6, [sp, #8]
 800040e:	4354      	muls	r4, r2
 8000410:	191c      	adds	r4, r3, r4
 8000412:	9400      	str	r4, [sp, #0]
 8000414:	2424      	movs	r4, #36	; 0x24
 8000416:	1d47      	adds	r7, r0, #5
 8000418:	4326      	orrs	r6, r4
 800041a:	9c00      	ldr	r4, [sp, #0]
 800041c:	b2bf      	uxth	r7, r7
 800041e:	55e6      	strb	r6, [r4, r7]
 8000420:	780c      	ldrb	r4, [r1, #0]
 8000422:	9e01      	ldr	r6, [sp, #4]
 8000424:	4354      	muls	r4, r2
 8000426:	1d87      	adds	r7, r0, #6
 8000428:	0c36      	lsrs	r6, r6, #16
 800042a:	191c      	adds	r4, r3, r4
 800042c:	432e      	orrs	r6, r5
 800042e:	b2bf      	uxth	r7, r7
 8000430:	55e6      	strb	r6, [r4, r7]
 8000432:	2649      	movs	r6, #73	; 0x49
 8000434:	780c      	ldrb	r4, [r1, #0]
 8000436:	9d01      	ldr	r5, [sp, #4]
 8000438:	7809      	ldrb	r1, [r1, #0]
 800043a:	0a2d      	lsrs	r5, r5, #8
 800043c:	432e      	orrs	r6, r5
 800043e:	2524      	movs	r5, #36	; 0x24
 8000440:	4354      	muls	r4, r2
 8000442:	434a      	muls	r2, r1
 8000444:	191c      	adds	r4, r3, r4
 8000446:	189b      	adds	r3, r3, r2
 8000448:	9a04      	ldr	r2, [sp, #16]
 800044a:	1dc7      	adds	r7, r0, #7
 800044c:	3008      	adds	r0, #8
 800044e:	b2bf      	uxth	r7, r7
 8000450:	b280      	uxth	r0, r0
 8000452:	4315      	orrs	r5, r2
 8000454:	55e6      	strb	r6, [r4, r7]
 8000456:	541d      	strb	r5, [r3, r0]
 8000458:	b007      	add	sp, #28
 800045a:	bdf0      	pop	{r4, r5, r6, r7, pc}
 800045c:	20000035 	.word	0x20000035
 8000460:	20000037 	.word	0x20000037

08000464 <main>:
 8000464:	b5f0      	push	{r4, r5, r6, r7, lr}
 8000466:	b089      	sub	sp, #36	; 0x24
 8000468:	f000 fa96 	bl	8000998 <HAL_Init>
 800046c:	f7ff feec 	bl	8000248 <SystemClock_Config>
 8000470:	2214      	movs	r2, #20
 8000472:	2100      	movs	r1, #0
 8000474:	a803      	add	r0, sp, #12
 8000476:	f001 fdec 	bl	8002052 <memset>
 800047a:	2180      	movs	r1, #128	; 0x80
 800047c:	4d93      	ldr	r5, [pc, #588]	; (80006cc <main+0x268>)
 800047e:	03c9      	lsls	r1, r1, #15
 8000480:	696a      	ldr	r2, [r5, #20]
 8000482:	4893      	ldr	r0, [pc, #588]	; (80006d0 <main+0x26c>)
 8000484:	430a      	orrs	r2, r1
 8000486:	616a      	str	r2, [r5, #20]
 8000488:	696b      	ldr	r3, [r5, #20]
 800048a:	2400      	movs	r4, #0
 800048c:	400b      	ands	r3, r1
 800048e:	2180      	movs	r1, #128	; 0x80
 8000490:	9300      	str	r3, [sp, #0]
 8000492:	9b00      	ldr	r3, [sp, #0]
 8000494:	696a      	ldr	r2, [r5, #20]
 8000496:	0289      	lsls	r1, r1, #10
 8000498:	430a      	orrs	r2, r1
 800049a:	616a      	str	r2, [r5, #20]
 800049c:	696b      	ldr	r3, [r5, #20]
 800049e:	2701      	movs	r7, #1
 80004a0:	400b      	ands	r3, r1
 80004a2:	2180      	movs	r1, #128	; 0x80
 80004a4:	9301      	str	r3, [sp, #4]
 80004a6:	9b01      	ldr	r3, [sp, #4]
 80004a8:	696a      	ldr	r2, [r5, #20]
 80004aa:	02c9      	lsls	r1, r1, #11
 80004ac:	430a      	orrs	r2, r1
 80004ae:	616a      	str	r2, [r5, #20]
 80004b0:	696b      	ldr	r3, [r5, #20]
 80004b2:	2200      	movs	r2, #0
 80004b4:	400b      	ands	r3, r1
 80004b6:	9302      	str	r3, [sp, #8]
 80004b8:	2108      	movs	r1, #8
 80004ba:	9b02      	ldr	r3, [sp, #8]
 80004bc:	f000 fc6a 	bl	8000d94 <HAL_GPIO_WritePin>
 80004c0:	2390      	movs	r3, #144	; 0x90
 80004c2:	2090      	movs	r0, #144	; 0x90
 80004c4:	2608      	movs	r6, #8
 80004c6:	011b      	lsls	r3, r3, #4
 80004c8:	a903      	add	r1, sp, #12
 80004ca:	05c0      	lsls	r0, r0, #23
 80004cc:	9303      	str	r3, [sp, #12]
 80004ce:	9705      	str	r7, [sp, #20]
 80004d0:	9404      	str	r4, [sp, #16]
 80004d2:	f000 fbaf 	bl	8000c34 <HAL_GPIO_Init>
 80004d6:	487e      	ldr	r0, [pc, #504]	; (80006d0 <main+0x26c>)
 80004d8:	a903      	add	r1, sp, #12
 80004da:	9704      	str	r7, [sp, #16]
 80004dc:	9603      	str	r6, [sp, #12]
 80004de:	9405      	str	r4, [sp, #20]
 80004e0:	9406      	str	r4, [sp, #24]
 80004e2:	f000 fba7 	bl	8000c34 <HAL_GPIO_Init>
 80004e6:	23f0      	movs	r3, #240	; 0xf0
 80004e8:	4879      	ldr	r0, [pc, #484]	; (80006d0 <main+0x26c>)
 80004ea:	a903      	add	r1, sp, #12
 80004ec:	9303      	str	r3, [sp, #12]
 80004ee:	9705      	str	r7, [sp, #20]
 80004f0:	9404      	str	r4, [sp, #16]
 80004f2:	f000 fb9f 	bl	8000c34 <HAL_GPIO_Init>
 80004f6:	696b      	ldr	r3, [r5, #20]
 80004f8:	0022      	movs	r2, r4
 80004fa:	433b      	orrs	r3, r7
 80004fc:	616b      	str	r3, [r5, #20]
 80004fe:	696b      	ldr	r3, [r5, #20]
 8000500:	0021      	movs	r1, r4
 8000502:	401f      	ands	r7, r3
 8000504:	200a      	movs	r0, #10
 8000506:	9703      	str	r7, [sp, #12]
 8000508:	9b03      	ldr	r3, [sp, #12]
 800050a:	f000 fa67 	bl	80009dc <HAL_NVIC_SetPriority>
 800050e:	200a      	movs	r0, #10
 8000510:	f000 fa8e 	bl	8000a30 <HAL_NVIC_EnableIRQ>
 8000514:	486f      	ldr	r0, [pc, #444]	; (80006d4 <main+0x270>)
 8000516:	4b70      	ldr	r3, [pc, #448]	; (80006d8 <main+0x274>)
 8000518:	6084      	str	r4, [r0, #8]
 800051a:	6003      	str	r3, [r0, #0]
 800051c:	2396      	movs	r3, #150	; 0x96
 800051e:	021b      	lsls	r3, r3, #8
 8000520:	6043      	str	r3, [r0, #4]
 8000522:	230c      	movs	r3, #12
 8000524:	60c4      	str	r4, [r0, #12]
 8000526:	6104      	str	r4, [r0, #16]
 8000528:	6143      	str	r3, [r0, #20]
 800052a:	6184      	str	r4, [r0, #24]
 800052c:	61c4      	str	r4, [r0, #28]
 800052e:	6204      	str	r4, [r0, #32]
 8000530:	6244      	str	r4, [r0, #36]	; 0x24
 8000532:	f001 fd2f 	bl	8001f94 <HAL_UART_Init>
 8000536:	42a0      	cmp	r0, r4
 8000538:	d001      	beq.n	800053e <main+0xda>
 800053a:	b672      	cpsid	i
 800053c:	e7fe      	b.n	800053c <main+0xd8>
 800053e:	4c67      	ldr	r4, [pc, #412]	; (80006dc <main+0x278>)
 8000540:	4b67      	ldr	r3, [pc, #412]	; (80006e0 <main+0x27c>)
 8000542:	60a0      	str	r0, [r4, #8]
 8000544:	6023      	str	r3, [r4, #0]
 8000546:	2382      	movs	r3, #130	; 0x82
 8000548:	005b      	lsls	r3, r3, #1
 800054a:	6063      	str	r3, [r4, #4]
 800054c:	23e0      	movs	r3, #224	; 0xe0
 800054e:	00db      	lsls	r3, r3, #3
 8000550:	60e3      	str	r3, [r4, #12]
 8000552:	2380      	movs	r3, #128	; 0x80
 8000554:	009b      	lsls	r3, r3, #2
 8000556:	61a3      	str	r3, [r4, #24]
 8000558:	3bf1      	subs	r3, #241	; 0xf1
 800055a:	3bff      	subs	r3, #255	; 0xff
 800055c:	6120      	str	r0, [r4, #16]
 800055e:	6160      	str	r0, [r4, #20]
 8000560:	61e3      	str	r3, [r4, #28]
 8000562:	6220      	str	r0, [r4, #32]
 8000564:	3b09      	subs	r3, #9
 8000566:	6260      	str	r0, [r4, #36]	; 0x24
 8000568:	62a0      	str	r0, [r4, #40]	; 0x28
 800056a:	6320      	str	r0, [r4, #48]	; 0x30
 800056c:	0020      	movs	r0, r4
 800056e:	62e3      	str	r3, [r4, #44]	; 0x2c
 8000570:	6366      	str	r6, [r4, #52]	; 0x34
 8000572:	f001 f853 	bl	800161c <HAL_SPI_Init>
 8000576:	1e03      	subs	r3, r0, #0
 8000578:	d001      	beq.n	800057e <main+0x11a>
 800057a:	b672      	cpsid	i
 800057c:	e7fe      	b.n	800057c <main+0x118>
 800057e:	4859      	ldr	r0, [pc, #356]	; (80006e4 <main+0x280>)
 8000580:	4a59      	ldr	r2, [pc, #356]	; (80006e8 <main+0x284>)
 8000582:	6083      	str	r3, [r0, #8]
 8000584:	6002      	str	r2, [r0, #0]
 8000586:	22c8      	movs	r2, #200	; 0xc8
 8000588:	6042      	str	r2, [r0, #4]
 800058a:	22fa      	movs	r2, #250	; 0xfa
 800058c:	0092      	lsls	r2, r2, #2
 800058e:	60c2      	str	r2, [r0, #12]
 8000590:	6103      	str	r3, [r0, #16]
 8000592:	6183      	str	r3, [r0, #24]
 8000594:	f001 fb4c 	bl	8001c30 <HAL_TIM_Base_Init>
 8000598:	2800      	cmp	r0, #0
 800059a:	d001      	beq.n	80005a0 <main+0x13c>
 800059c:	b672      	cpsid	i
 800059e:	e7fe      	b.n	800059e <main+0x13a>
 80005a0:	2224      	movs	r2, #36	; 0x24
 80005a2:	23a2      	movs	r3, #162	; 0xa2
 80005a4:	2792      	movs	r7, #146	; 0x92
 80005a6:	2649      	movs	r6, #73	; 0x49
 80005a8:	4694      	mov	ip, r2
 80005aa:	00db      	lsls	r3, r3, #3
 80005ac:	4d4f      	ldr	r5, [pc, #316]	; (80006ec <main+0x288>)
 80005ae:	4950      	ldr	r1, [pc, #320]	; (80006f0 <main+0x28c>)
 80005b0:	782a      	ldrb	r2, [r5, #0]
 80005b2:	435a      	muls	r2, r3
 80005b4:	188a      	adds	r2, r1, r2
 80005b6:	5417      	strb	r7, [r2, r0]
 80005b8:	782a      	ldrb	r2, [r5, #0]
 80005ba:	435a      	muls	r2, r3
 80005bc:	188a      	adds	r2, r1, r2
 80005be:	1812      	adds	r2, r2, r0
 80005c0:	7056      	strb	r6, [r2, #1]
 80005c2:	782a      	ldrb	r2, [r5, #0]
 80005c4:	435a      	muls	r2, r3
 80005c6:	188a      	adds	r2, r1, r2
 80005c8:	4661      	mov	r1, ip
 80005ca:	1812      	adds	r2, r2, r0
 80005cc:	7091      	strb	r1, [r2, #2]
 80005ce:	782a      	ldrb	r2, [r5, #0]
 80005d0:	4947      	ldr	r1, [pc, #284]	; (80006f0 <main+0x28c>)
 80005d2:	435a      	muls	r2, r3
 80005d4:	188a      	adds	r2, r1, r2
 80005d6:	1812      	adds	r2, r2, r0
 80005d8:	70d7      	strb	r7, [r2, #3]
 80005da:	782a      	ldrb	r2, [r5, #0]
 80005dc:	435a      	muls	r2, r3
 80005de:	188a      	adds	r2, r1, r2
 80005e0:	1812      	adds	r2, r2, r0
 80005e2:	7116      	strb	r6, [r2, #4]
 80005e4:	782a      	ldrb	r2, [r5, #0]
 80005e6:	435a      	muls	r2, r3
 80005e8:	188a      	adds	r2, r1, r2
 80005ea:	4661      	mov	r1, ip
 80005ec:	1812      	adds	r2, r2, r0
 80005ee:	7151      	strb	r1, [r2, #5]
 80005f0:	782a      	ldrb	r2, [r5, #0]
 80005f2:	493f      	ldr	r1, [pc, #252]	; (80006f0 <main+0x28c>)
 80005f4:	435a      	muls	r2, r3
 80005f6:	188a      	adds	r2, r1, r2
 80005f8:	1812      	adds	r2, r2, r0
 80005fa:	7197      	strb	r7, [r2, #6]
 80005fc:	782a      	ldrb	r2, [r5, #0]
 80005fe:	435a      	muls	r2, r3
 8000600:	188a      	adds	r2, r1, r2
 8000602:	1812      	adds	r2, r2, r0
 8000604:	71d6      	strb	r6, [r2, #7]
 8000606:	782a      	ldrb	r2, [r5, #0]
 8000608:	435a      	muls	r2, r3
 800060a:	188a      	adds	r2, r1, r2
 800060c:	4661      	mov	r1, ip
 800060e:	1812      	adds	r2, r2, r0
 8000610:	3009      	adds	r0, #9
 8000612:	7211      	strb	r1, [r2, #8]
 8000614:	4298      	cmp	r0, r3
 8000616:	d1c9      	bne.n	80005ac <main+0x148>
 8000618:	4832      	ldr	r0, [pc, #200]	; (80006e4 <main+0x280>)
 800061a:	f001 f9ed 	bl	80019f8 <HAL_TIM_Base_Start_IT>
 800061e:	4b35      	ldr	r3, [pc, #212]	; (80006f4 <main+0x290>)
 8000620:	4a35      	ldr	r2, [pc, #212]	; (80006f8 <main+0x294>)
 8000622:	7819      	ldrb	r1, [r3, #0]
 8000624:	2900      	cmp	r1, #0
 8000626:	d1fc      	bne.n	8000622 <main+0x1be>
 8000628:	7811      	ldrb	r1, [r2, #0]
 800062a:	b2ce      	uxtb	r6, r1
 800062c:	2900      	cmp	r1, #0
 800062e:	d1f8      	bne.n	8000622 <main+0x1be>
 8000630:	3109      	adds	r1, #9
 8000632:	7011      	strb	r1, [r2, #0]
 8000634:	2201      	movs	r2, #1
 8000636:	701a      	strb	r2, [r3, #0]
 8000638:	2212      	movs	r2, #18
 800063a:	4f30      	ldr	r7, [pc, #192]	; (80006fc <main+0x298>)
 800063c:	08f3      	lsrs	r3, r6, #3
 800063e:	7839      	ldrb	r1, [r7, #0]
 8000640:	482f      	ldr	r0, [pc, #188]	; (8000700 <main+0x29c>)
 8000642:	4351      	muls	r1, r2
 8000644:	4a2f      	ldr	r2, [pc, #188]	; (8000704 <main+0x2a0>)
 8000646:	1852      	adds	r2, r2, r1
 8000648:	2107      	movs	r1, #7
 800064a:	5cd2      	ldrb	r2, [r2, r3]
 800064c:	2380      	movs	r3, #128	; 0x80
 800064e:	4031      	ands	r1, r6
 8000650:	410b      	asrs	r3, r1
 8000652:	2103      	movs	r1, #3
 8000654:	4213      	tst	r3, r2
 8000656:	d037      	beq.n	80006c8 <main+0x264>
 8000658:	4b2b      	ldr	r3, [pc, #172]	; (8000708 <main+0x2a4>)
 800065a:	781b      	ldrb	r3, [r3, #0]
 800065c:	4359      	muls	r1, r3
 800065e:	1842      	adds	r2, r0, r1
 8000660:	5c41      	ldrb	r1, [r0, r1]
 8000662:	0030      	movs	r0, r6
 8000664:	3601      	adds	r6, #1
 8000666:	7893      	ldrb	r3, [r2, #2]
 8000668:	b2f6      	uxtb	r6, r6
 800066a:	7852      	ldrb	r2, [r2, #1]
 800066c:	f7ff fe26 	bl	80002bc <setPixelColor>
 8000670:	2e90      	cmp	r6, #144	; 0x90
 8000672:	d1e1      	bne.n	8000638 <main+0x1d4>
 8000674:	783b      	ldrb	r3, [r7, #0]
 8000676:	2600      	movs	r6, #0
 8000678:	2b04      	cmp	r3, #4
 800067a:	d11b      	bne.n	80006b4 <main+0x250>
 800067c:	2700      	movs	r7, #0
 800067e:	4b23      	ldr	r3, [pc, #140]	; (800070c <main+0x2a8>)
 8000680:	5cf2      	ldrb	r2, [r6, r3]
 8000682:	2306      	movs	r3, #6
 8000684:	435a      	muls	r2, r3
 8000686:	4b22      	ldr	r3, [pc, #136]	; (8000710 <main+0x2ac>)
 8000688:	189b      	adds	r3, r3, r2
 800068a:	4a22      	ldr	r2, [pc, #136]	; (8000714 <main+0x2b0>)
 800068c:	5ddb      	ldrb	r3, [r3, r7]
 800068e:	56b0      	ldrsb	r0, [r6, r2]
 8000690:	220d      	movs	r2, #13
 8000692:	4350      	muls	r0, r2
 8000694:	18c0      	adds	r0, r0, r3
 8000696:	1e43      	subs	r3, r0, #1
 8000698:	2b8e      	cmp	r3, #142	; 0x8e
 800069a:	d805      	bhi.n	80006a8 <main+0x244>
 800069c:	23ff      	movs	r3, #255	; 0xff
 800069e:	b2c0      	uxtb	r0, r0
 80006a0:	001a      	movs	r2, r3
 80006a2:	0019      	movs	r1, r3
 80006a4:	f7ff fe0a 	bl	80002bc <setPixelColor>
 80006a8:	3701      	adds	r7, #1
 80006aa:	2f06      	cmp	r7, #6
 80006ac:	d1e7      	bne.n	800067e <main+0x21a>
 80006ae:	3601      	adds	r6, #1
 80006b0:	2e04      	cmp	r6, #4
 80006b2:	d1e3      	bne.n	800067c <main+0x218>
 80006b4:	22a2      	movs	r2, #162	; 0xa2
 80006b6:	7829      	ldrb	r1, [r5, #0]
 80006b8:	00d2      	lsls	r2, r2, #3
 80006ba:	4351      	muls	r1, r2
 80006bc:	4b0c      	ldr	r3, [pc, #48]	; (80006f0 <main+0x28c>)
 80006be:	0020      	movs	r0, r4
 80006c0:	1859      	adds	r1, r3, r1
 80006c2:	f001 f823 	bl	800170c <HAL_SPI_Transmit_DMA>
 80006c6:	e7aa      	b.n	800061e <main+0x1ba>
 80006c8:	4b13      	ldr	r3, [pc, #76]	; (8000718 <main+0x2b4>)
 80006ca:	e7c6      	b.n	800065a <main+0x1f6>
 80006cc:	40021000 	.word	0x40021000
 80006d0:	48000400 	.word	0x48000400
 80006d4:	20000638 	.word	0x20000638
 80006d8:	40013800 	.word	0x40013800
 80006dc:	2000058c 	.word	0x2000058c
 80006e0:	40013000 	.word	0x40013000
 80006e4:	200005f0 	.word	0x200005f0
 80006e8:	40002000 	.word	0x40002000
 80006ec:	20000035 	.word	0x20000035
 80006f0:	20000037 	.word	0x20000037
 80006f4:	200006bc 	.word	0x200006bc
 80006f8:	20000009 	.word	0x20000009
 80006fc:	20000036 	.word	0x20000036
 8000700:	08002088 	.word	0x08002088
 8000704:	08002097 	.word	0x08002097
 8000708:	20000008 	.word	0x20000008
 800070c:	20000004 	.word	0x20000004
 8000710:	0800207c 	.word	0x0800207c
 8000714:	20000000 	.word	0x20000000
 8000718:	20000034 	.word	0x20000034

0800071c <HAL_SPI_TxCpltCallback>:
 800071c:	2200      	movs	r2, #0
 800071e:	4b01      	ldr	r3, [pc, #4]	; (8000724 <HAL_SPI_TxCpltCallback+0x8>)
 8000720:	701a      	strb	r2, [r3, #0]
 8000722:	4770      	bx	lr
 8000724:	200006bc 	.word	0x200006bc

08000728 <HAL_TIM_PeriodElapsedCallback>:
 8000728:	4a04      	ldr	r2, [pc, #16]	; (800073c <HAL_TIM_PeriodElapsedCallback+0x14>)
 800072a:	7813      	ldrb	r3, [r2, #0]
 800072c:	2b00      	cmp	r3, #0
 800072e:	d003      	beq.n	8000738 <HAL_TIM_PeriodElapsedCallback+0x10>
 8000730:	7813      	ldrb	r3, [r2, #0]
 8000732:	3b01      	subs	r3, #1
 8000734:	b2db      	uxtb	r3, r3
 8000736:	7013      	strb	r3, [r2, #0]
 8000738:	4770      	bx	lr
 800073a:	46c0      	nop			; (mov r8, r8)
 800073c:	20000009 	.word	0x20000009

08000740 <Error_Handler>:
 8000740:	b672      	cpsid	i
 8000742:	e7fe      	b.n	8000742 <Error_Handler+0x2>

08000744 <HAL_MspInit>:
 8000744:	2001      	movs	r0, #1
 8000746:	4b0a      	ldr	r3, [pc, #40]	; (8000770 <HAL_MspInit+0x2c>)
 8000748:	b082      	sub	sp, #8
 800074a:	6999      	ldr	r1, [r3, #24]
 800074c:	4301      	orrs	r1, r0
 800074e:	6199      	str	r1, [r3, #24]
 8000750:	2180      	movs	r1, #128	; 0x80
 8000752:	699a      	ldr	r2, [r3, #24]
 8000754:	0549      	lsls	r1, r1, #21
 8000756:	4002      	ands	r2, r0
 8000758:	9200      	str	r2, [sp, #0]
 800075a:	9a00      	ldr	r2, [sp, #0]
 800075c:	69da      	ldr	r2, [r3, #28]
 800075e:	430a      	orrs	r2, r1
 8000760:	61da      	str	r2, [r3, #28]
 8000762:	69db      	ldr	r3, [r3, #28]
 8000764:	400b      	ands	r3, r1
 8000766:	9301      	str	r3, [sp, #4]
 8000768:	9b01      	ldr	r3, [sp, #4]
 800076a:	b002      	add	sp, #8
 800076c:	4770      	bx	lr
 800076e:	46c0      	nop			; (mov r8, r8)
 8000770:	40021000 	.word	0x40021000

08000774 <HAL_SPI_MspInit>:
 8000774:	b530      	push	{r4, r5, lr}
 8000776:	0005      	movs	r5, r0
 8000778:	b089      	sub	sp, #36	; 0x24
 800077a:	2214      	movs	r2, #20
 800077c:	2100      	movs	r1, #0
 800077e:	a803      	add	r0, sp, #12
 8000780:	f001 fc67 	bl	8002052 <memset>
 8000784:	4b20      	ldr	r3, [pc, #128]	; (8000808 <HAL_SPI_MspInit+0x94>)
 8000786:	682a      	ldr	r2, [r5, #0]
 8000788:	429a      	cmp	r2, r3
 800078a:	d13b      	bne.n	8000804 <HAL_SPI_MspInit+0x90>
 800078c:	2080      	movs	r0, #128	; 0x80
 800078e:	4b1f      	ldr	r3, [pc, #124]	; (800080c <HAL_SPI_MspInit+0x98>)
 8000790:	0140      	lsls	r0, r0, #5
 8000792:	6999      	ldr	r1, [r3, #24]
 8000794:	4301      	orrs	r1, r0
 8000796:	6199      	str	r1, [r3, #24]
 8000798:	2180      	movs	r1, #128	; 0x80
 800079a:	699a      	ldr	r2, [r3, #24]
 800079c:	0289      	lsls	r1, r1, #10
 800079e:	4002      	ands	r2, r0
 80007a0:	9201      	str	r2, [sp, #4]
 80007a2:	9a01      	ldr	r2, [sp, #4]
 80007a4:	695a      	ldr	r2, [r3, #20]
 80007a6:	2090      	movs	r0, #144	; 0x90
 80007a8:	430a      	orrs	r2, r1
 80007aa:	615a      	str	r2, [r3, #20]
 80007ac:	695b      	ldr	r3, [r3, #20]
 80007ae:	05c0      	lsls	r0, r0, #23
 80007b0:	400b      	ands	r3, r1
 80007b2:	9302      	str	r3, [sp, #8]
 80007b4:	9b02      	ldr	r3, [sp, #8]
 80007b6:	23a0      	movs	r3, #160	; 0xa0
 80007b8:	9303      	str	r3, [sp, #12]
 80007ba:	3b9e      	subs	r3, #158	; 0x9e
 80007bc:	9304      	str	r3, [sp, #16]
 80007be:	a903      	add	r1, sp, #12
 80007c0:	3301      	adds	r3, #1
 80007c2:	9306      	str	r3, [sp, #24]
 80007c4:	f000 fa36 	bl	8000c34 <HAL_GPIO_Init>
 80007c8:	4c11      	ldr	r4, [pc, #68]	; (8000810 <HAL_SPI_MspInit+0x9c>)
 80007ca:	4b12      	ldr	r3, [pc, #72]	; (8000814 <HAL_SPI_MspInit+0xa0>)
 80007cc:	2280      	movs	r2, #128	; 0x80
 80007ce:	6023      	str	r3, [r4, #0]
 80007d0:	2310      	movs	r3, #16
 80007d2:	6063      	str	r3, [r4, #4]
 80007d4:	2300      	movs	r3, #0
 80007d6:	0020      	movs	r0, r4
 80007d8:	60a3      	str	r3, [r4, #8]
 80007da:	60e2      	str	r2, [r4, #12]
 80007dc:	6123      	str	r3, [r4, #16]
 80007de:	6163      	str	r3, [r4, #20]
 80007e0:	61a3      	str	r3, [r4, #24]
 80007e2:	61e3      	str	r3, [r4, #28]
 80007e4:	f000 f94a 	bl	8000a7c <HAL_DMA_Init>
 80007e8:	2800      	cmp	r0, #0
 80007ea:	d001      	beq.n	80007f0 <HAL_SPI_MspInit+0x7c>
 80007ec:	f7ff ffa8 	bl	8000740 <Error_Handler>
 80007f0:	2200      	movs	r2, #0
 80007f2:	2019      	movs	r0, #25
 80007f4:	0011      	movs	r1, r2
 80007f6:	656c      	str	r4, [r5, #84]	; 0x54
 80007f8:	6265      	str	r5, [r4, #36]	; 0x24
 80007fa:	f000 f8ef 	bl	80009dc <HAL_NVIC_SetPriority>
 80007fe:	2019      	movs	r0, #25
 8000800:	f000 f916 	bl	8000a30 <HAL_NVIC_EnableIRQ>
 8000804:	b009      	add	sp, #36	; 0x24
 8000806:	bd30      	pop	{r4, r5, pc}
 8000808:	40013000 	.word	0x40013000
 800080c:	40021000 	.word	0x40021000
 8000810:	20000548 	.word	0x20000548
 8000814:	40020030 	.word	0x40020030

08000818 <HAL_TIM_Base_MspInit>:
 8000818:	b507      	push	{r0, r1, r2, lr}
 800081a:	4b0b      	ldr	r3, [pc, #44]	; (8000848 <HAL_TIM_Base_MspInit+0x30>)
 800081c:	6802      	ldr	r2, [r0, #0]
 800081e:	429a      	cmp	r2, r3
 8000820:	d111      	bne.n	8000846 <HAL_TIM_Base_MspInit+0x2e>
 8000822:	2080      	movs	r0, #128	; 0x80
 8000824:	4a09      	ldr	r2, [pc, #36]	; (800084c <HAL_TIM_Base_MspInit+0x34>)
 8000826:	0040      	lsls	r0, r0, #1
 8000828:	69d1      	ldr	r1, [r2, #28]
 800082a:	4301      	orrs	r1, r0
 800082c:	61d1      	str	r1, [r2, #28]
 800082e:	69d3      	ldr	r3, [r2, #28]
 8000830:	2200      	movs	r2, #0
 8000832:	4003      	ands	r3, r0
 8000834:	9301      	str	r3, [sp, #4]
 8000836:	38ed      	subs	r0, #237	; 0xed
 8000838:	0011      	movs	r1, r2
 800083a:	9b01      	ldr	r3, [sp, #4]
 800083c:	f000 f8ce 	bl	80009dc <HAL_NVIC_SetPriority>
 8000840:	2013      	movs	r0, #19
 8000842:	f000 f8f5 	bl	8000a30 <HAL_NVIC_EnableIRQ>
 8000846:	bd07      	pop	{r0, r1, r2, pc}
 8000848:	40002000 	.word	0x40002000
 800084c:	40021000 	.word	0x40021000

08000850 <HAL_UART_MspInit>:
 8000850:	b510      	push	{r4, lr}
 8000852:	0004      	movs	r4, r0
 8000854:	b088      	sub	sp, #32
 8000856:	2214      	movs	r2, #20
 8000858:	2100      	movs	r1, #0
 800085a:	a803      	add	r0, sp, #12
 800085c:	f001 fbf9 	bl	8002052 <memset>
 8000860:	4b12      	ldr	r3, [pc, #72]	; (80008ac <HAL_UART_MspInit+0x5c>)
 8000862:	6822      	ldr	r2, [r4, #0]
 8000864:	429a      	cmp	r2, r3
 8000866:	d11f      	bne.n	80008a8 <HAL_UART_MspInit+0x58>
 8000868:	2080      	movs	r0, #128	; 0x80
 800086a:	4b11      	ldr	r3, [pc, #68]	; (80008b0 <HAL_UART_MspInit+0x60>)
 800086c:	01c0      	lsls	r0, r0, #7
 800086e:	6999      	ldr	r1, [r3, #24]
 8000870:	4301      	orrs	r1, r0
 8000872:	6199      	str	r1, [r3, #24]
 8000874:	2180      	movs	r1, #128	; 0x80
 8000876:	699a      	ldr	r2, [r3, #24]
 8000878:	0289      	lsls	r1, r1, #10
 800087a:	4002      	ands	r2, r0
 800087c:	9201      	str	r2, [sp, #4]
 800087e:	9a01      	ldr	r2, [sp, #4]
 8000880:	695a      	ldr	r2, [r3, #20]
 8000882:	2090      	movs	r0, #144	; 0x90
 8000884:	430a      	orrs	r2, r1
 8000886:	615a      	str	r2, [r3, #20]
 8000888:	695b      	ldr	r3, [r3, #20]
 800088a:	05c0      	lsls	r0, r0, #23
 800088c:	400b      	ands	r3, r1
 800088e:	9302      	str	r3, [sp, #8]
 8000890:	9b02      	ldr	r3, [sp, #8]
 8000892:	4b08      	ldr	r3, [pc, #32]	; (80008b4 <HAL_UART_MspInit+0x64>)
 8000894:	a903      	add	r1, sp, #12
 8000896:	9303      	str	r3, [sp, #12]
 8000898:	2302      	movs	r3, #2
 800089a:	9304      	str	r3, [sp, #16]
 800089c:	3301      	adds	r3, #1
 800089e:	9306      	str	r3, [sp, #24]
 80008a0:	3b02      	subs	r3, #2
 80008a2:	9307      	str	r3, [sp, #28]
 80008a4:	f000 f9c6 	bl	8000c34 <HAL_GPIO_Init>
 80008a8:	b008      	add	sp, #32
 80008aa:	bd10      	pop	{r4, pc}
 80008ac:	40013800 	.word	0x40013800
 80008b0:	40021000 	.word	0x40021000
 80008b4:	00008004 	.word	0x00008004

080008b8 <NMI_Handler>:
 80008b8:	e7fe      	b.n	80008b8 <NMI_Handler>

080008ba <HardFault_Handler>:
 80008ba:	e7fe      	b.n	80008ba <HardFault_Handler>

080008bc <SVC_Handler>:
 80008bc:	4770      	bx	lr

080008be <PendSV_Handler>:
 80008be:	4770      	bx	lr

080008c0 <SysTick_Handler>:
 80008c0:	b510      	push	{r4, lr}
 80008c2:	f000 f879 	bl	80009b8 <HAL_IncTick>
 80008c6:	bd10      	pop	{r4, pc}

080008c8 <DMA1_Channel2_3_IRQHandler>:
 80008c8:	b510      	push	{r4, lr}
 80008ca:	4802      	ldr	r0, [pc, #8]	; (80008d4 <DMA1_Channel2_3_IRQHandler+0xc>)
 80008cc:	f000 f969 	bl	8000ba2 <HAL_DMA_IRQHandler>
 80008d0:	bd10      	pop	{r4, pc}
 80008d2:	46c0      	nop			; (mov r8, r8)
 80008d4:	20000548 	.word	0x20000548

080008d8 <TIM14_IRQHandler>:
 80008d8:	b510      	push	{r4, lr}
 80008da:	4802      	ldr	r0, [pc, #8]	; (80008e4 <TIM14_IRQHandler+0xc>)
 80008dc:	f001 f8bc 	bl	8001a58 <HAL_TIM_IRQHandler>
 80008e0:	bd10      	pop	{r4, pc}
 80008e2:	46c0      	nop			; (mov r8, r8)
 80008e4:	200005f0 	.word	0x200005f0

080008e8 <SPI1_IRQHandler>:
 80008e8:	b510      	push	{r4, lr}
 80008ea:	4802      	ldr	r0, [pc, #8]	; (80008f4 <SPI1_IRQHandler+0xc>)
 80008ec:	f000 ffea 	bl	80018c4 <HAL_SPI_IRQHandler>
 80008f0:	bd10      	pop	{r4, pc}
 80008f2:	46c0      	nop			; (mov r8, r8)
 80008f4:	2000058c 	.word	0x2000058c

080008f8 <SystemInit>:
 80008f8:	4770      	bx	lr
	...

080008fc <Reset_Handler>:
 80008fc:	480d      	ldr	r0, [pc, #52]	; (8000934 <LoopForever+0x2>)
 80008fe:	4685      	mov	sp, r0
 8000900:	480d      	ldr	r0, [pc, #52]	; (8000938 <LoopForever+0x6>)
 8000902:	490e      	ldr	r1, [pc, #56]	; (800093c <LoopForever+0xa>)
 8000904:	4a0e      	ldr	r2, [pc, #56]	; (8000940 <LoopForever+0xe>)
 8000906:	2300      	movs	r3, #0
 8000908:	e002      	b.n	8000910 <LoopCopyDataInit>

0800090a <CopyDataInit>:
 800090a:	58d4      	ldr	r4, [r2, r3]
 800090c:	50c4      	str	r4, [r0, r3]
 800090e:	3304      	adds	r3, #4

08000910 <LoopCopyDataInit>:
 8000910:	18c4      	adds	r4, r0, r3
 8000912:	428c      	cmp	r4, r1
 8000914:	d3f9      	bcc.n	800090a <CopyDataInit>
 8000916:	4a0b      	ldr	r2, [pc, #44]	; (8000944 <LoopForever+0x12>)
 8000918:	4c0b      	ldr	r4, [pc, #44]	; (8000948 <LoopForever+0x16>)
 800091a:	2300      	movs	r3, #0
 800091c:	e001      	b.n	8000922 <LoopFillZerobss>

0800091e <FillZerobss>:
 800091e:	6013      	str	r3, [r2, #0]
 8000920:	3204      	adds	r2, #4

08000922 <LoopFillZerobss>:
 8000922:	42a2      	cmp	r2, r4
 8000924:	d3fb      	bcc.n	800091e <FillZerobss>
 8000926:	f7ff ffe7 	bl	80008f8 <SystemInit>
 800092a:	f001 fb65 	bl	8001ff8 <__libc_init_array>
 800092e:	f7ff fd99 	bl	8000464 <main>

08000932 <LoopForever>:
 8000932:	e7fe      	b.n	8000932 <LoopForever>
 8000934:	20001000 	.word	0x20001000
 8000938:	20000000 	.word	0x20000000
 800093c:	20000018 	.word	0x20000018
 8000940:	08002138 	.word	0x08002138
 8000944:	20000018 	.word	0x20000018
 8000948:	200006c4 	.word	0x200006c4

0800094c <ADC1_IRQHandler>:
 800094c:	e7fe      	b.n	800094c <ADC1_IRQHandler>
	...

08000950 <HAL_InitTick>:
 8000950:	b570      	push	{r4, r5, r6, lr}
 8000952:	0005      	movs	r5, r0
 8000954:	20fa      	movs	r0, #250	; 0xfa
 8000956:	4b0d      	ldr	r3, [pc, #52]	; (800098c <HAL_InitTick+0x3c>)
 8000958:	0080      	lsls	r0, r0, #2
 800095a:	7819      	ldrb	r1, [r3, #0]
 800095c:	f7ff fbe8 	bl	8000130 <__udivsi3>
 8000960:	4b0b      	ldr	r3, [pc, #44]	; (8000990 <HAL_InitTick+0x40>)
 8000962:	0001      	movs	r1, r0
 8000964:	6818      	ldr	r0, [r3, #0]
 8000966:	f7ff fbe3 	bl	8000130 <__udivsi3>
 800096a:	f000 f86d 	bl	8000a48 <HAL_SYSTICK_Config>
 800096e:	0004      	movs	r4, r0
 8000970:	2001      	movs	r0, #1
 8000972:	2c00      	cmp	r4, #0
 8000974:	d109      	bne.n	800098a <HAL_InitTick+0x3a>
 8000976:	2d03      	cmp	r5, #3
 8000978:	d807      	bhi.n	800098a <HAL_InitTick+0x3a>
 800097a:	3802      	subs	r0, #2
 800097c:	0022      	movs	r2, r4
 800097e:	0029      	movs	r1, r5
 8000980:	f000 f82c 	bl	80009dc <HAL_NVIC_SetPriority>
 8000984:	0020      	movs	r0, r4
 8000986:	4b03      	ldr	r3, [pc, #12]	; (8000994 <HAL_InitTick+0x44>)
 8000988:	601d      	str	r5, [r3, #0]
 800098a:	bd70      	pop	{r4, r5, r6, pc}
 800098c:	20000010 	.word	0x20000010
 8000990:	2000000c 	.word	0x2000000c
 8000994:	20000014 	.word	0x20000014

08000998 <HAL_Init>:
 8000998:	2310      	movs	r3, #16
 800099a:	4a06      	ldr	r2, [pc, #24]	; (80009b4 <HAL_Init+0x1c>)
 800099c:	b510      	push	{r4, lr}
 800099e:	6811      	ldr	r1, [r2, #0]
 80009a0:	2000      	movs	r0, #0
 80009a2:	430b      	orrs	r3, r1
 80009a4:	6013      	str	r3, [r2, #0]
 80009a6:	f7ff ffd3 	bl	8000950 <HAL_InitTick>
 80009aa:	f7ff fecb 	bl	8000744 <HAL_MspInit>
 80009ae:	2000      	movs	r0, #0
 80009b0:	bd10      	pop	{r4, pc}
 80009b2:	46c0      	nop			; (mov r8, r8)
 80009b4:	40022000 	.word	0x40022000

080009b8 <HAL_IncTick>:
 80009b8:	4a03      	ldr	r2, [pc, #12]	; (80009c8 <HAL_IncTick+0x10>)
 80009ba:	4b04      	ldr	r3, [pc, #16]	; (80009cc <HAL_IncTick+0x14>)
 80009bc:	6811      	ldr	r1, [r2, #0]
 80009be:	781b      	ldrb	r3, [r3, #0]
 80009c0:	185b      	adds	r3, r3, r1
 80009c2:	6013      	str	r3, [r2, #0]
 80009c4:	4770      	bx	lr
 80009c6:	46c0      	nop			; (mov r8, r8)
 80009c8:	200006c0 	.word	0x200006c0
 80009cc:	20000010 	.word	0x20000010

080009d0 <HAL_GetTick>:
 80009d0:	4b01      	ldr	r3, [pc, #4]	; (80009d8 <HAL_GetTick+0x8>)
 80009d2:	6818      	ldr	r0, [r3, #0]
 80009d4:	4770      	bx	lr
 80009d6:	46c0      	nop			; (mov r8, r8)
 80009d8:	200006c0 	.word	0x200006c0

080009dc <HAL_NVIC_SetPriority>:
 80009dc:	b530      	push	{r4, r5, lr}
 80009de:	25ff      	movs	r5, #255	; 0xff
 80009e0:	2403      	movs	r4, #3
 80009e2:	002a      	movs	r2, r5
 80009e4:	4004      	ands	r4, r0
 80009e6:	00e4      	lsls	r4, r4, #3
 80009e8:	40a2      	lsls	r2, r4
 80009ea:	0189      	lsls	r1, r1, #6
 80009ec:	4029      	ands	r1, r5
 80009ee:	43d2      	mvns	r2, r2
 80009f0:	40a1      	lsls	r1, r4
 80009f2:	b2c3      	uxtb	r3, r0
 80009f4:	2800      	cmp	r0, #0
 80009f6:	db0a      	blt.n	8000a0e <HAL_NVIC_SetPriority+0x32>
 80009f8:	24c0      	movs	r4, #192	; 0xc0
 80009fa:	4b0b      	ldr	r3, [pc, #44]	; (8000a28 <HAL_NVIC_SetPriority+0x4c>)
 80009fc:	0880      	lsrs	r0, r0, #2
 80009fe:	0080      	lsls	r0, r0, #2
 8000a00:	18c0      	adds	r0, r0, r3
 8000a02:	00a4      	lsls	r4, r4, #2
 8000a04:	5903      	ldr	r3, [r0, r4]
 8000a06:	401a      	ands	r2, r3
 8000a08:	4311      	orrs	r1, r2
 8000a0a:	5101      	str	r1, [r0, r4]
 8000a0c:	bd30      	pop	{r4, r5, pc}
 8000a0e:	200f      	movs	r0, #15
 8000a10:	4003      	ands	r3, r0
 8000a12:	3b08      	subs	r3, #8
 8000a14:	4805      	ldr	r0, [pc, #20]	; (8000a2c <HAL_NVIC_SetPriority+0x50>)
 8000a16:	089b      	lsrs	r3, r3, #2
 8000a18:	009b      	lsls	r3, r3, #2
 8000a1a:	181b      	adds	r3, r3, r0
 8000a1c:	69d8      	ldr	r0, [r3, #28]
 8000a1e:	4002      	ands	r2, r0
 8000a20:	4311      	orrs	r1, r2
 8000a22:	61d9      	str	r1, [r3, #28]
 8000a24:	e7f2      	b.n	8000a0c <HAL_NVIC_SetPriority+0x30>
 8000a26:	46c0      	nop			; (mov r8, r8)
 8000a28:	e000e100 	.word	0xe000e100
 8000a2c:	e000ed00 	.word	0xe000ed00

08000a30 <HAL_NVIC_EnableIRQ>:
 8000a30:	2800      	cmp	r0, #0
 8000a32:	db05      	blt.n	8000a40 <HAL_NVIC_EnableIRQ+0x10>
 8000a34:	231f      	movs	r3, #31
 8000a36:	4018      	ands	r0, r3
 8000a38:	3b1e      	subs	r3, #30
 8000a3a:	4083      	lsls	r3, r0
 8000a3c:	4a01      	ldr	r2, [pc, #4]	; (8000a44 <HAL_NVIC_EnableIRQ+0x14>)
 8000a3e:	6013      	str	r3, [r2, #0]
 8000a40:	4770      	bx	lr
 8000a42:	46c0      	nop			; (mov r8, r8)
 8000a44:	e000e100 	.word	0xe000e100

08000a48 <HAL_SYSTICK_Config>:
 8000a48:	2280      	movs	r2, #128	; 0x80
 8000a4a:	1e43      	subs	r3, r0, #1
 8000a4c:	0452      	lsls	r2, r2, #17
 8000a4e:	2001      	movs	r0, #1
 8000a50:	4293      	cmp	r3, r2
 8000a52:	d20d      	bcs.n	8000a70 <HAL_SYSTICK_Config+0x28>
 8000a54:	21c0      	movs	r1, #192	; 0xc0
 8000a56:	4a07      	ldr	r2, [pc, #28]	; (8000a74 <HAL_SYSTICK_Config+0x2c>)
 8000a58:	4807      	ldr	r0, [pc, #28]	; (8000a78 <HAL_SYSTICK_Config+0x30>)
 8000a5a:	6053      	str	r3, [r2, #4]
 8000a5c:	6a03      	ldr	r3, [r0, #32]
 8000a5e:	0609      	lsls	r1, r1, #24
 8000a60:	021b      	lsls	r3, r3, #8
 8000a62:	0a1b      	lsrs	r3, r3, #8
 8000a64:	430b      	orrs	r3, r1
 8000a66:	6203      	str	r3, [r0, #32]
 8000a68:	2000      	movs	r0, #0
 8000a6a:	2307      	movs	r3, #7
 8000a6c:	6090      	str	r0, [r2, #8]
 8000a6e:	6013      	str	r3, [r2, #0]
 8000a70:	4770      	bx	lr
 8000a72:	46c0      	nop			; (mov r8, r8)
 8000a74:	e000e010 	.word	0xe000e010
 8000a78:	e000ed00 	.word	0xe000ed00

08000a7c <HAL_DMA_Init>:
 8000a7c:	b570      	push	{r4, r5, r6, lr}
 8000a7e:	0004      	movs	r4, r0
 8000a80:	2001      	movs	r0, #1
 8000a82:	2c00      	cmp	r4, #0
 8000a84:	d024      	beq.n	8000ad0 <HAL_DMA_Init+0x54>
 8000a86:	2302      	movs	r3, #2
 8000a88:	1ca5      	adds	r5, r4, #2
 8000a8a:	77eb      	strb	r3, [r5, #31]
 8000a8c:	6820      	ldr	r0, [r4, #0]
 8000a8e:	4b11      	ldr	r3, [pc, #68]	; (8000ad4 <HAL_DMA_Init+0x58>)
 8000a90:	6802      	ldr	r2, [r0, #0]
 8000a92:	68a1      	ldr	r1, [r4, #8]
 8000a94:	401a      	ands	r2, r3
 8000a96:	6863      	ldr	r3, [r4, #4]
 8000a98:	430b      	orrs	r3, r1
 8000a9a:	68e1      	ldr	r1, [r4, #12]
 8000a9c:	430b      	orrs	r3, r1
 8000a9e:	6921      	ldr	r1, [r4, #16]
 8000aa0:	430b      	orrs	r3, r1
 8000aa2:	6961      	ldr	r1, [r4, #20]
 8000aa4:	430b      	orrs	r3, r1
 8000aa6:	69a1      	ldr	r1, [r4, #24]
 8000aa8:	430b      	orrs	r3, r1
 8000aaa:	69e1      	ldr	r1, [r4, #28]
 8000aac:	430b      	orrs	r3, r1
 8000aae:	4313      	orrs	r3, r2
 8000ab0:	6003      	str	r3, [r0, #0]
 8000ab2:	4b09      	ldr	r3, [pc, #36]	; (8000ad8 <HAL_DMA_Init+0x5c>)
 8000ab4:	2114      	movs	r1, #20
 8000ab6:	18c0      	adds	r0, r0, r3
 8000ab8:	f7ff fb3a 	bl	8000130 <__udivsi3>
 8000abc:	4b07      	ldr	r3, [pc, #28]	; (8000adc <HAL_DMA_Init+0x60>)
 8000abe:	0080      	lsls	r0, r0, #2
 8000ac0:	6420      	str	r0, [r4, #64]	; 0x40
 8000ac2:	63e3      	str	r3, [r4, #60]	; 0x3c
 8000ac4:	2000      	movs	r0, #0
 8000ac6:	2301      	movs	r3, #1
 8000ac8:	63a0      	str	r0, [r4, #56]	; 0x38
 8000aca:	18e4      	adds	r4, r4, r3
 8000acc:	77eb      	strb	r3, [r5, #31]
 8000ace:	77e0      	strb	r0, [r4, #31]
 8000ad0:	bd70      	pop	{r4, r5, r6, pc}
 8000ad2:	46c0      	nop			; (mov r8, r8)
 8000ad4:	ffffc00f 	.word	0xffffc00f
 8000ad8:	bffdfff8 	.word	0xbffdfff8
 8000adc:	40020000 	.word	0x40020000

08000ae0 <HAL_DMA_Start_IT>:
 8000ae0:	b5f7      	push	{r0, r1, r2, r4, r5, r6, r7, lr}
 8000ae2:	1c45      	adds	r5, r0, #1
 8000ae4:	9301      	str	r3, [sp, #4]
 8000ae6:	7feb      	ldrb	r3, [r5, #31]
 8000ae8:	0004      	movs	r4, r0
 8000aea:	2002      	movs	r0, #2
 8000aec:	2b01      	cmp	r3, #1
 8000aee:	d027      	beq.n	8000b40 <HAL_DMA_Start_IT+0x60>
 8000af0:	2301      	movs	r3, #1
 8000af2:	1827      	adds	r7, r4, r0
 8000af4:	77eb      	strb	r3, [r5, #31]
 8000af6:	7ffb      	ldrb	r3, [r7, #31]
 8000af8:	2600      	movs	r6, #0
 8000afa:	469c      	mov	ip, r3
 8000afc:	4660      	mov	r0, ip
 8000afe:	b2db      	uxtb	r3, r3
 8000b00:	2801      	cmp	r0, #1
 8000b02:	d128      	bne.n	8000b56 <HAL_DMA_Start_IT+0x76>
 8000b04:	3001      	adds	r0, #1
 8000b06:	77f8      	strb	r0, [r7, #31]
 8000b08:	6820      	ldr	r0, [r4, #0]
 8000b0a:	63a6      	str	r6, [r4, #56]	; 0x38
 8000b0c:	6805      	ldr	r5, [r0, #0]
 8000b0e:	6c26      	ldr	r6, [r4, #64]	; 0x40
 8000b10:	439d      	bics	r5, r3
 8000b12:	40b3      	lsls	r3, r6
 8000b14:	6005      	str	r5, [r0, #0]
 8000b16:	6be5      	ldr	r5, [r4, #60]	; 0x3c
 8000b18:	606b      	str	r3, [r5, #4]
 8000b1a:	9b01      	ldr	r3, [sp, #4]
 8000b1c:	6043      	str	r3, [r0, #4]
 8000b1e:	6863      	ldr	r3, [r4, #4]
 8000b20:	2b10      	cmp	r3, #16
 8000b22:	d10e      	bne.n	8000b42 <HAL_DMA_Start_IT+0x62>
 8000b24:	6082      	str	r2, [r0, #8]
 8000b26:	60c1      	str	r1, [r0, #12]
 8000b28:	6ae3      	ldr	r3, [r4, #44]	; 0x2c
 8000b2a:	6802      	ldr	r2, [r0, #0]
 8000b2c:	2b00      	cmp	r3, #0
 8000b2e:	d00b      	beq.n	8000b48 <HAL_DMA_Start_IT+0x68>
 8000b30:	230e      	movs	r3, #14
 8000b32:	4313      	orrs	r3, r2
 8000b34:	6003      	str	r3, [r0, #0]
 8000b36:	2301      	movs	r3, #1
 8000b38:	6802      	ldr	r2, [r0, #0]
 8000b3a:	4313      	orrs	r3, r2
 8000b3c:	6003      	str	r3, [r0, #0]
 8000b3e:	2000      	movs	r0, #0
 8000b40:	bdfe      	pop	{r1, r2, r3, r4, r5, r6, r7, pc}
 8000b42:	6081      	str	r1, [r0, #8]
 8000b44:	60c2      	str	r2, [r0, #12]
 8000b46:	e7ef      	b.n	8000b28 <HAL_DMA_Start_IT+0x48>
 8000b48:	230a      	movs	r3, #10
 8000b4a:	4313      	orrs	r3, r2
 8000b4c:	2204      	movs	r2, #4
 8000b4e:	6003      	str	r3, [r0, #0]
 8000b50:	6803      	ldr	r3, [r0, #0]
 8000b52:	4393      	bics	r3, r2
 8000b54:	e7ee      	b.n	8000b34 <HAL_DMA_Start_IT+0x54>
 8000b56:	2002      	movs	r0, #2
 8000b58:	77ee      	strb	r6, [r5, #31]
 8000b5a:	e7f1      	b.n	8000b40 <HAL_DMA_Start_IT+0x60>

08000b5c <HAL_DMA_Abort_IT>:
 8000b5c:	b570      	push	{r4, r5, r6, lr}
 8000b5e:	1c84      	adds	r4, r0, #2
 8000b60:	7fe3      	ldrb	r3, [r4, #31]
 8000b62:	2b02      	cmp	r3, #2
 8000b64:	d004      	beq.n	8000b70 <HAL_DMA_Abort_IT+0x14>
 8000b66:	2304      	movs	r3, #4
 8000b68:	6383      	str	r3, [r0, #56]	; 0x38
 8000b6a:	3b03      	subs	r3, #3
 8000b6c:	0018      	movs	r0, r3
 8000b6e:	bd70      	pop	{r4, r5, r6, pc}
 8000b70:	210e      	movs	r1, #14
 8000b72:	6803      	ldr	r3, [r0, #0]
 8000b74:	6c05      	ldr	r5, [r0, #64]	; 0x40
 8000b76:	681a      	ldr	r2, [r3, #0]
 8000b78:	438a      	bics	r2, r1
 8000b7a:	601a      	str	r2, [r3, #0]
 8000b7c:	2201      	movs	r2, #1
 8000b7e:	6819      	ldr	r1, [r3, #0]
 8000b80:	4391      	bics	r1, r2
 8000b82:	6019      	str	r1, [r3, #0]
 8000b84:	0011      	movs	r1, r2
 8000b86:	40a9      	lsls	r1, r5
 8000b88:	6bc3      	ldr	r3, [r0, #60]	; 0x3c
 8000b8a:	6059      	str	r1, [r3, #4]
 8000b8c:	77e2      	strb	r2, [r4, #31]
 8000b8e:	2400      	movs	r4, #0
 8000b90:	1883      	adds	r3, r0, r2
 8000b92:	77dc      	strb	r4, [r3, #31]
 8000b94:	6b42      	ldr	r2, [r0, #52]	; 0x34
 8000b96:	0013      	movs	r3, r2
 8000b98:	42a2      	cmp	r2, r4
 8000b9a:	d0e7      	beq.n	8000b6c <HAL_DMA_Abort_IT+0x10>
 8000b9c:	4790      	blx	r2
 8000b9e:	0023      	movs	r3, r4
 8000ba0:	e7e4      	b.n	8000b6c <HAL_DMA_Abort_IT+0x10>

08000ba2 <HAL_DMA_IRQHandler>:
 8000ba2:	b5f8      	push	{r3, r4, r5, r6, r7, lr}
 8000ba4:	2704      	movs	r7, #4
 8000ba6:	003e      	movs	r6, r7
 8000ba8:	6c01      	ldr	r1, [r0, #64]	; 0x40
 8000baa:	6bc2      	ldr	r2, [r0, #60]	; 0x3c
 8000bac:	408e      	lsls	r6, r1
 8000bae:	6815      	ldr	r5, [r2, #0]
 8000bb0:	6803      	ldr	r3, [r0, #0]
 8000bb2:	681c      	ldr	r4, [r3, #0]
 8000bb4:	4235      	tst	r5, r6
 8000bb6:	d00d      	beq.n	8000bd4 <HAL_DMA_IRQHandler+0x32>
 8000bb8:	423c      	tst	r4, r7
 8000bba:	d00b      	beq.n	8000bd4 <HAL_DMA_IRQHandler+0x32>
 8000bbc:	6819      	ldr	r1, [r3, #0]
 8000bbe:	0689      	lsls	r1, r1, #26
 8000bc0:	d402      	bmi.n	8000bc8 <HAL_DMA_IRQHandler+0x26>
 8000bc2:	6819      	ldr	r1, [r3, #0]
 8000bc4:	43b9      	bics	r1, r7
 8000bc6:	6019      	str	r1, [r3, #0]
 8000bc8:	6ac3      	ldr	r3, [r0, #44]	; 0x2c
 8000bca:	6056      	str	r6, [r2, #4]
 8000bcc:	2b00      	cmp	r3, #0
 8000bce:	d019      	beq.n	8000c04 <HAL_DMA_IRQHandler+0x62>
 8000bd0:	4798      	blx	r3
 8000bd2:	e017      	b.n	8000c04 <HAL_DMA_IRQHandler+0x62>
 8000bd4:	2702      	movs	r7, #2
 8000bd6:	003e      	movs	r6, r7
 8000bd8:	408e      	lsls	r6, r1
 8000bda:	4235      	tst	r5, r6
 8000bdc:	d013      	beq.n	8000c06 <HAL_DMA_IRQHandler+0x64>
 8000bde:	423c      	tst	r4, r7
 8000be0:	d011      	beq.n	8000c06 <HAL_DMA_IRQHandler+0x64>
 8000be2:	6819      	ldr	r1, [r3, #0]
 8000be4:	0689      	lsls	r1, r1, #26
 8000be6:	d406      	bmi.n	8000bf6 <HAL_DMA_IRQHandler+0x54>
 8000be8:	240a      	movs	r4, #10
 8000bea:	6819      	ldr	r1, [r3, #0]
 8000bec:	43a1      	bics	r1, r4
 8000bee:	6019      	str	r1, [r3, #0]
 8000bf0:	2101      	movs	r1, #1
 8000bf2:	19c3      	adds	r3, r0, r7
 8000bf4:	77d9      	strb	r1, [r3, #31]
 8000bf6:	6056      	str	r6, [r2, #4]
 8000bf8:	2200      	movs	r2, #0
 8000bfa:	1c43      	adds	r3, r0, #1
 8000bfc:	77da      	strb	r2, [r3, #31]
 8000bfe:	6a83      	ldr	r3, [r0, #40]	; 0x28
 8000c00:	4293      	cmp	r3, r2
 8000c02:	d1e5      	bne.n	8000bd0 <HAL_DMA_IRQHandler+0x2e>
 8000c04:	bdf8      	pop	{r3, r4, r5, r6, r7, pc}
 8000c06:	2608      	movs	r6, #8
 8000c08:	0037      	movs	r7, r6
 8000c0a:	408f      	lsls	r7, r1
 8000c0c:	423d      	tst	r5, r7
 8000c0e:	d0f9      	beq.n	8000c04 <HAL_DMA_IRQHandler+0x62>
 8000c10:	4234      	tst	r4, r6
 8000c12:	d0f7      	beq.n	8000c04 <HAL_DMA_IRQHandler+0x62>
 8000c14:	250e      	movs	r5, #14
 8000c16:	681c      	ldr	r4, [r3, #0]
 8000c18:	43ac      	bics	r4, r5
 8000c1a:	601c      	str	r4, [r3, #0]
 8000c1c:	2301      	movs	r3, #1
 8000c1e:	001c      	movs	r4, r3
 8000c20:	408c      	lsls	r4, r1
 8000c22:	6054      	str	r4, [r2, #4]
 8000c24:	1c82      	adds	r2, r0, #2
 8000c26:	6383      	str	r3, [r0, #56]	; 0x38
 8000c28:	77d3      	strb	r3, [r2, #31]
 8000c2a:	2200      	movs	r2, #0
 8000c2c:	18c3      	adds	r3, r0, r3
 8000c2e:	77da      	strb	r2, [r3, #31]
 8000c30:	6b03      	ldr	r3, [r0, #48]	; 0x30
 8000c32:	e7e5      	b.n	8000c00 <HAL_DMA_IRQHandler+0x5e>

08000c34 <HAL_GPIO_Init>:
 8000c34:	2300      	movs	r3, #0
 8000c36:	b5f0      	push	{r4, r5, r6, r7, lr}
 8000c38:	b087      	sub	sp, #28
 8000c3a:	680a      	ldr	r2, [r1, #0]
 8000c3c:	0014      	movs	r4, r2
 8000c3e:	40dc      	lsrs	r4, r3
 8000c40:	d101      	bne.n	8000c46 <HAL_GPIO_Init+0x12>
 8000c42:	b007      	add	sp, #28
 8000c44:	bdf0      	pop	{r4, r5, r6, r7, pc}
 8000c46:	2501      	movs	r5, #1
 8000c48:	0014      	movs	r4, r2
 8000c4a:	409d      	lsls	r5, r3
 8000c4c:	402c      	ands	r4, r5
 8000c4e:	9401      	str	r4, [sp, #4]
 8000c50:	422a      	tst	r2, r5
 8000c52:	d100      	bne.n	8000c56 <HAL_GPIO_Init+0x22>
 8000c54:	e091      	b.n	8000d7a <HAL_GPIO_Init+0x146>
 8000c56:	684a      	ldr	r2, [r1, #4]
 8000c58:	005e      	lsls	r6, r3, #1
 8000c5a:	4694      	mov	ip, r2
 8000c5c:	2203      	movs	r2, #3
 8000c5e:	4664      	mov	r4, ip
 8000c60:	4022      	ands	r2, r4
 8000c62:	2403      	movs	r4, #3
 8000c64:	40b4      	lsls	r4, r6
 8000c66:	43e4      	mvns	r4, r4
 8000c68:	9402      	str	r4, [sp, #8]
 8000c6a:	1e54      	subs	r4, r2, #1
 8000c6c:	2c01      	cmp	r4, #1
 8000c6e:	d82a      	bhi.n	8000cc6 <HAL_GPIO_Init+0x92>
 8000c70:	6887      	ldr	r7, [r0, #8]
 8000c72:	9c02      	ldr	r4, [sp, #8]
 8000c74:	4027      	ands	r7, r4
 8000c76:	68cc      	ldr	r4, [r1, #12]
 8000c78:	40b4      	lsls	r4, r6
 8000c7a:	433c      	orrs	r4, r7
 8000c7c:	6084      	str	r4, [r0, #8]
 8000c7e:	6844      	ldr	r4, [r0, #4]
 8000c80:	2701      	movs	r7, #1
 8000c82:	43ac      	bics	r4, r5
 8000c84:	0025      	movs	r5, r4
 8000c86:	4664      	mov	r4, ip
 8000c88:	0924      	lsrs	r4, r4, #4
 8000c8a:	403c      	ands	r4, r7
 8000c8c:	409c      	lsls	r4, r3
 8000c8e:	432c      	orrs	r4, r5
 8000c90:	6044      	str	r4, [r0, #4]
 8000c92:	68c5      	ldr	r5, [r0, #12]
 8000c94:	9c02      	ldr	r4, [sp, #8]
 8000c96:	4025      	ands	r5, r4
 8000c98:	688c      	ldr	r4, [r1, #8]
 8000c9a:	40b4      	lsls	r4, r6
 8000c9c:	432c      	orrs	r4, r5
 8000c9e:	60c4      	str	r4, [r0, #12]
 8000ca0:	2a02      	cmp	r2, #2
 8000ca2:	d112      	bne.n	8000cca <HAL_GPIO_Init+0x96>
 8000ca4:	08dc      	lsrs	r4, r3, #3
 8000ca6:	2507      	movs	r5, #7
 8000ca8:	00a4      	lsls	r4, r4, #2
 8000caa:	1904      	adds	r4, r0, r4
 8000cac:	6a27      	ldr	r7, [r4, #32]
 8000cae:	9403      	str	r4, [sp, #12]
 8000cb0:	240f      	movs	r4, #15
 8000cb2:	401d      	ands	r5, r3
 8000cb4:	00ad      	lsls	r5, r5, #2
 8000cb6:	40ac      	lsls	r4, r5
 8000cb8:	43a7      	bics	r7, r4
 8000cba:	690c      	ldr	r4, [r1, #16]
 8000cbc:	40ac      	lsls	r4, r5
 8000cbe:	4327      	orrs	r7, r4
 8000cc0:	9c03      	ldr	r4, [sp, #12]
 8000cc2:	6227      	str	r7, [r4, #32]
 8000cc4:	e001      	b.n	8000cca <HAL_GPIO_Init+0x96>
 8000cc6:	2a03      	cmp	r2, #3
 8000cc8:	d1e3      	bne.n	8000c92 <HAL_GPIO_Init+0x5e>
 8000cca:	6804      	ldr	r4, [r0, #0]
 8000ccc:	9d02      	ldr	r5, [sp, #8]
 8000cce:	40b2      	lsls	r2, r6
 8000cd0:	4025      	ands	r5, r4
 8000cd2:	002c      	movs	r4, r5
 8000cd4:	4314      	orrs	r4, r2
 8000cd6:	6004      	str	r4, [r0, #0]
 8000cd8:	24c0      	movs	r4, #192	; 0xc0
 8000cda:	4662      	mov	r2, ip
 8000cdc:	02a4      	lsls	r4, r4, #10
 8000cde:	4222      	tst	r2, r4
 8000ce0:	d04b      	beq.n	8000d7a <HAL_GPIO_Init+0x146>
 8000ce2:	2501      	movs	r5, #1
 8000ce4:	4a26      	ldr	r2, [pc, #152]	; (8000d80 <HAL_GPIO_Init+0x14c>)
 8000ce6:	2790      	movs	r7, #144	; 0x90
 8000ce8:	6994      	ldr	r4, [r2, #24]
 8000cea:	05ff      	lsls	r7, r7, #23
 8000cec:	432c      	orrs	r4, r5
 8000cee:	6194      	str	r4, [r2, #24]
 8000cf0:	6992      	ldr	r2, [r2, #24]
 8000cf2:	089c      	lsrs	r4, r3, #2
 8000cf4:	402a      	ands	r2, r5
 8000cf6:	9205      	str	r2, [sp, #20]
 8000cf8:	9a05      	ldr	r2, [sp, #20]
 8000cfa:	4a22      	ldr	r2, [pc, #136]	; (8000d84 <HAL_GPIO_Init+0x150>)
 8000cfc:	00a4      	lsls	r4, r4, #2
 8000cfe:	18a4      	adds	r4, r4, r2
 8000d00:	220f      	movs	r2, #15
 8000d02:	3502      	adds	r5, #2
 8000d04:	401d      	ands	r5, r3
 8000d06:	00ad      	lsls	r5, r5, #2
 8000d08:	40aa      	lsls	r2, r5
 8000d0a:	68a6      	ldr	r6, [r4, #8]
 8000d0c:	4396      	bics	r6, r2
 8000d0e:	2200      	movs	r2, #0
 8000d10:	42b8      	cmp	r0, r7
 8000d12:	d008      	beq.n	8000d26 <HAL_GPIO_Init+0xf2>
 8000d14:	4f1c      	ldr	r7, [pc, #112]	; (8000d88 <HAL_GPIO_Init+0x154>)
 8000d16:	3201      	adds	r2, #1
 8000d18:	42b8      	cmp	r0, r7
 8000d1a:	d004      	beq.n	8000d26 <HAL_GPIO_Init+0xf2>
 8000d1c:	4f1b      	ldr	r7, [pc, #108]	; (8000d8c <HAL_GPIO_Init+0x158>)
 8000d1e:	3201      	adds	r2, #1
 8000d20:	42b8      	cmp	r0, r7
 8000d22:	d000      	beq.n	8000d26 <HAL_GPIO_Init+0xf2>
 8000d24:	3203      	adds	r2, #3
 8000d26:	40aa      	lsls	r2, r5
 8000d28:	4667      	mov	r7, ip
 8000d2a:	4332      	orrs	r2, r6
 8000d2c:	60a2      	str	r2, [r4, #8]
 8000d2e:	4a18      	ldr	r2, [pc, #96]	; (8000d90 <HAL_GPIO_Init+0x15c>)
 8000d30:	9c01      	ldr	r4, [sp, #4]
 8000d32:	6816      	ldr	r6, [r2, #0]
 8000d34:	9d01      	ldr	r5, [sp, #4]
 8000d36:	43e4      	mvns	r4, r4
 8000d38:	4335      	orrs	r5, r6
 8000d3a:	03ff      	lsls	r7, r7, #15
 8000d3c:	d401      	bmi.n	8000d42 <HAL_GPIO_Init+0x10e>
 8000d3e:	0035      	movs	r5, r6
 8000d40:	4025      	ands	r5, r4
 8000d42:	4667      	mov	r7, ip
 8000d44:	6015      	str	r5, [r2, #0]
 8000d46:	6856      	ldr	r6, [r2, #4]
 8000d48:	9d01      	ldr	r5, [sp, #4]
 8000d4a:	4335      	orrs	r5, r6
 8000d4c:	03bf      	lsls	r7, r7, #14
 8000d4e:	d401      	bmi.n	8000d54 <HAL_GPIO_Init+0x120>
 8000d50:	0035      	movs	r5, r6
 8000d52:	4025      	ands	r5, r4
 8000d54:	4667      	mov	r7, ip
 8000d56:	6055      	str	r5, [r2, #4]
 8000d58:	6896      	ldr	r6, [r2, #8]
 8000d5a:	9d01      	ldr	r5, [sp, #4]
 8000d5c:	4335      	orrs	r5, r6
 8000d5e:	02ff      	lsls	r7, r7, #11
 8000d60:	d401      	bmi.n	8000d66 <HAL_GPIO_Init+0x132>
 8000d62:	0035      	movs	r5, r6
 8000d64:	4025      	ands	r5, r4
 8000d66:	4667      	mov	r7, ip
 8000d68:	6095      	str	r5, [r2, #8]
 8000d6a:	68d5      	ldr	r5, [r2, #12]
 8000d6c:	9e01      	ldr	r6, [sp, #4]
 8000d6e:	432e      	orrs	r6, r5
 8000d70:	02bf      	lsls	r7, r7, #10
 8000d72:	d401      	bmi.n	8000d78 <HAL_GPIO_Init+0x144>
 8000d74:	4025      	ands	r5, r4
 8000d76:	002e      	movs	r6, r5
 8000d78:	60d6      	str	r6, [r2, #12]
 8000d7a:	3301      	adds	r3, #1
 8000d7c:	e75d      	b.n	8000c3a <HAL_GPIO_Init+0x6>
 8000d7e:	46c0      	nop			; (mov r8, r8)
 8000d80:	40021000 	.word	0x40021000
 8000d84:	40010000 	.word	0x40010000
 8000d88:	48000400 	.word	0x48000400
 8000d8c:	48000800 	.word	0x48000800
 8000d90:	40010400 	.word	0x40010400

08000d94 <HAL_GPIO_WritePin>:
 8000d94:	2a00      	cmp	r2, #0
 8000d96:	d001      	beq.n	8000d9c <HAL_GPIO_WritePin+0x8>
 8000d98:	6181      	str	r1, [r0, #24]
 8000d9a:	4770      	bx	lr
 8000d9c:	6281      	str	r1, [r0, #40]	; 0x28
 8000d9e:	e7fc      	b.n	8000d9a <HAL_GPIO_WritePin+0x6>

08000da0 <HAL_RCC_OscConfig>:
 8000da0:	b5f0      	push	{r4, r5, r6, r7, lr}
 8000da2:	0004      	movs	r4, r0
 8000da4:	b085      	sub	sp, #20
 8000da6:	2800      	cmp	r0, #0
 8000da8:	d045      	beq.n	8000e36 <HAL_RCC_OscConfig+0x96>
 8000daa:	6803      	ldr	r3, [r0, #0]
 8000dac:	07db      	lsls	r3, r3, #31
 8000dae:	d42f      	bmi.n	8000e10 <HAL_RCC_OscConfig+0x70>
 8000db0:	6823      	ldr	r3, [r4, #0]
 8000db2:	079b      	lsls	r3, r3, #30
 8000db4:	d500      	bpl.n	8000db8 <HAL_RCC_OscConfig+0x18>
 8000db6:	e081      	b.n	8000ebc <HAL_RCC_OscConfig+0x11c>
 8000db8:	6823      	ldr	r3, [r4, #0]
 8000dba:	071b      	lsls	r3, r3, #28
 8000dbc:	d500      	bpl.n	8000dc0 <HAL_RCC_OscConfig+0x20>
 8000dbe:	e0bc      	b.n	8000f3a <HAL_RCC_OscConfig+0x19a>
 8000dc0:	6823      	ldr	r3, [r4, #0]
 8000dc2:	075b      	lsls	r3, r3, #29
 8000dc4:	d500      	bpl.n	8000dc8 <HAL_RCC_OscConfig+0x28>
 8000dc6:	e0df      	b.n	8000f88 <HAL_RCC_OscConfig+0x1e8>
 8000dc8:	6823      	ldr	r3, [r4, #0]
 8000dca:	06db      	lsls	r3, r3, #27
 8000dcc:	d51a      	bpl.n	8000e04 <HAL_RCC_OscConfig+0x64>
 8000dce:	6962      	ldr	r2, [r4, #20]
 8000dd0:	2304      	movs	r3, #4
 8000dd2:	4db5      	ldr	r5, [pc, #724]	; (80010a8 <HAL_RCC_OscConfig+0x308>)
 8000dd4:	2a01      	cmp	r2, #1
 8000dd6:	d000      	beq.n	8000dda <HAL_RCC_OscConfig+0x3a>
 8000dd8:	e14a      	b.n	8001070 <HAL_RCC_OscConfig+0x2d0>
 8000dda:	6b69      	ldr	r1, [r5, #52]	; 0x34
 8000ddc:	2702      	movs	r7, #2
 8000dde:	430b      	orrs	r3, r1
 8000de0:	636b      	str	r3, [r5, #52]	; 0x34
 8000de2:	6b6b      	ldr	r3, [r5, #52]	; 0x34
 8000de4:	431a      	orrs	r2, r3
 8000de6:	636a      	str	r2, [r5, #52]	; 0x34
 8000de8:	f7ff fdf2 	bl	80009d0 <HAL_GetTick>
 8000dec:	0006      	movs	r6, r0
 8000dee:	6b6b      	ldr	r3, [r5, #52]	; 0x34
 8000df0:	423b      	tst	r3, r7
 8000df2:	d100      	bne.n	8000df6 <HAL_RCC_OscConfig+0x56>
 8000df4:	e135      	b.n	8001062 <HAL_RCC_OscConfig+0x2c2>
 8000df6:	21f8      	movs	r1, #248	; 0xf8
 8000df8:	6b6a      	ldr	r2, [r5, #52]	; 0x34
 8000dfa:	69a3      	ldr	r3, [r4, #24]
 8000dfc:	438a      	bics	r2, r1
 8000dfe:	00db      	lsls	r3, r3, #3
 8000e00:	4313      	orrs	r3, r2
 8000e02:	636b      	str	r3, [r5, #52]	; 0x34
 8000e04:	6a23      	ldr	r3, [r4, #32]
 8000e06:	2b00      	cmp	r3, #0
 8000e08:	d000      	beq.n	8000e0c <HAL_RCC_OscConfig+0x6c>
 8000e0a:	e159      	b.n	80010c0 <HAL_RCC_OscConfig+0x320>
 8000e0c:	2000      	movs	r0, #0
 8000e0e:	e02a      	b.n	8000e66 <HAL_RCC_OscConfig+0xc6>
 8000e10:	210c      	movs	r1, #12
 8000e12:	4da5      	ldr	r5, [pc, #660]	; (80010a8 <HAL_RCC_OscConfig+0x308>)
 8000e14:	686a      	ldr	r2, [r5, #4]
 8000e16:	400a      	ands	r2, r1
 8000e18:	2a04      	cmp	r2, #4
 8000e1a:	d006      	beq.n	8000e2a <HAL_RCC_OscConfig+0x8a>
 8000e1c:	686b      	ldr	r3, [r5, #4]
 8000e1e:	400b      	ands	r3, r1
 8000e20:	2b08      	cmp	r3, #8
 8000e22:	d10a      	bne.n	8000e3a <HAL_RCC_OscConfig+0x9a>
 8000e24:	686b      	ldr	r3, [r5, #4]
 8000e26:	03db      	lsls	r3, r3, #15
 8000e28:	d507      	bpl.n	8000e3a <HAL_RCC_OscConfig+0x9a>
 8000e2a:	682b      	ldr	r3, [r5, #0]
 8000e2c:	039b      	lsls	r3, r3, #14
 8000e2e:	d5bf      	bpl.n	8000db0 <HAL_RCC_OscConfig+0x10>
 8000e30:	6863      	ldr	r3, [r4, #4]
 8000e32:	2b00      	cmp	r3, #0
 8000e34:	d1bc      	bne.n	8000db0 <HAL_RCC_OscConfig+0x10>
 8000e36:	2001      	movs	r0, #1
 8000e38:	e015      	b.n	8000e66 <HAL_RCC_OscConfig+0xc6>
 8000e3a:	6863      	ldr	r3, [r4, #4]
 8000e3c:	2b01      	cmp	r3, #1
 8000e3e:	d114      	bne.n	8000e6a <HAL_RCC_OscConfig+0xca>
 8000e40:	2380      	movs	r3, #128	; 0x80
 8000e42:	682a      	ldr	r2, [r5, #0]
 8000e44:	025b      	lsls	r3, r3, #9
 8000e46:	4313      	orrs	r3, r2
 8000e48:	602b      	str	r3, [r5, #0]
 8000e4a:	f7ff fdc1 	bl	80009d0 <HAL_GetTick>
 8000e4e:	2780      	movs	r7, #128	; 0x80
 8000e50:	0006      	movs	r6, r0
 8000e52:	02bf      	lsls	r7, r7, #10
 8000e54:	682b      	ldr	r3, [r5, #0]
 8000e56:	423b      	tst	r3, r7
 8000e58:	d1aa      	bne.n	8000db0 <HAL_RCC_OscConfig+0x10>
 8000e5a:	f7ff fdb9 	bl	80009d0 <HAL_GetTick>
 8000e5e:	1b80      	subs	r0, r0, r6
 8000e60:	2864      	cmp	r0, #100	; 0x64
 8000e62:	d9f7      	bls.n	8000e54 <HAL_RCC_OscConfig+0xb4>
 8000e64:	2003      	movs	r0, #3
 8000e66:	b005      	add	sp, #20
 8000e68:	bdf0      	pop	{r4, r5, r6, r7, pc}
 8000e6a:	2b00      	cmp	r3, #0
 8000e6c:	d116      	bne.n	8000e9c <HAL_RCC_OscConfig+0xfc>
 8000e6e:	682b      	ldr	r3, [r5, #0]
 8000e70:	4a8e      	ldr	r2, [pc, #568]	; (80010ac <HAL_RCC_OscConfig+0x30c>)
 8000e72:	2780      	movs	r7, #128	; 0x80
 8000e74:	4013      	ands	r3, r2
 8000e76:	602b      	str	r3, [r5, #0]
 8000e78:	682b      	ldr	r3, [r5, #0]
 8000e7a:	4a8d      	ldr	r2, [pc, #564]	; (80010b0 <HAL_RCC_OscConfig+0x310>)
 8000e7c:	02bf      	lsls	r7, r7, #10
 8000e7e:	4013      	ands	r3, r2
 8000e80:	602b      	str	r3, [r5, #0]
 8000e82:	f7ff fda5 	bl	80009d0 <HAL_GetTick>
 8000e86:	0006      	movs	r6, r0
 8000e88:	682b      	ldr	r3, [r5, #0]
 8000e8a:	423b      	tst	r3, r7
 8000e8c:	d100      	bne.n	8000e90 <HAL_RCC_OscConfig+0xf0>
 8000e8e:	e78f      	b.n	8000db0 <HAL_RCC_OscConfig+0x10>
 8000e90:	f7ff fd9e 	bl	80009d0 <HAL_GetTick>
 8000e94:	1b80      	subs	r0, r0, r6
 8000e96:	2864      	cmp	r0, #100	; 0x64
 8000e98:	d9f6      	bls.n	8000e88 <HAL_RCC_OscConfig+0xe8>
 8000e9a:	e7e3      	b.n	8000e64 <HAL_RCC_OscConfig+0xc4>
 8000e9c:	2b05      	cmp	r3, #5
 8000e9e:	d105      	bne.n	8000eac <HAL_RCC_OscConfig+0x10c>
 8000ea0:	2380      	movs	r3, #128	; 0x80
 8000ea2:	682a      	ldr	r2, [r5, #0]
 8000ea4:	02db      	lsls	r3, r3, #11
 8000ea6:	4313      	orrs	r3, r2
 8000ea8:	602b      	str	r3, [r5, #0]
 8000eaa:	e7c9      	b.n	8000e40 <HAL_RCC_OscConfig+0xa0>
 8000eac:	682b      	ldr	r3, [r5, #0]
 8000eae:	4a7f      	ldr	r2, [pc, #508]	; (80010ac <HAL_RCC_OscConfig+0x30c>)
 8000eb0:	4013      	ands	r3, r2
 8000eb2:	602b      	str	r3, [r5, #0]
 8000eb4:	682b      	ldr	r3, [r5, #0]
 8000eb6:	4a7e      	ldr	r2, [pc, #504]	; (80010b0 <HAL_RCC_OscConfig+0x310>)
 8000eb8:	4013      	ands	r3, r2
 8000eba:	e7c5      	b.n	8000e48 <HAL_RCC_OscConfig+0xa8>
 8000ebc:	220c      	movs	r2, #12
 8000ebe:	4d7a      	ldr	r5, [pc, #488]	; (80010a8 <HAL_RCC_OscConfig+0x308>)
 8000ec0:	686b      	ldr	r3, [r5, #4]
 8000ec2:	4213      	tst	r3, r2
 8000ec4:	d006      	beq.n	8000ed4 <HAL_RCC_OscConfig+0x134>
 8000ec6:	686b      	ldr	r3, [r5, #4]
 8000ec8:	4013      	ands	r3, r2
 8000eca:	2b08      	cmp	r3, #8
 8000ecc:	d110      	bne.n	8000ef0 <HAL_RCC_OscConfig+0x150>
 8000ece:	686b      	ldr	r3, [r5, #4]
 8000ed0:	03db      	lsls	r3, r3, #15
 8000ed2:	d40d      	bmi.n	8000ef0 <HAL_RCC_OscConfig+0x150>
 8000ed4:	682b      	ldr	r3, [r5, #0]
 8000ed6:	079b      	lsls	r3, r3, #30
 8000ed8:	d502      	bpl.n	8000ee0 <HAL_RCC_OscConfig+0x140>
 8000eda:	68e3      	ldr	r3, [r4, #12]
 8000edc:	2b01      	cmp	r3, #1
 8000ede:	d1aa      	bne.n	8000e36 <HAL_RCC_OscConfig+0x96>
 8000ee0:	21f8      	movs	r1, #248	; 0xf8
 8000ee2:	682a      	ldr	r2, [r5, #0]
 8000ee4:	6923      	ldr	r3, [r4, #16]
 8000ee6:	438a      	bics	r2, r1
 8000ee8:	00db      	lsls	r3, r3, #3
 8000eea:	4313      	orrs	r3, r2
 8000eec:	602b      	str	r3, [r5, #0]
 8000eee:	e763      	b.n	8000db8 <HAL_RCC_OscConfig+0x18>
 8000ef0:	68e2      	ldr	r2, [r4, #12]
 8000ef2:	2301      	movs	r3, #1
 8000ef4:	2a00      	cmp	r2, #0
 8000ef6:	d00f      	beq.n	8000f18 <HAL_RCC_OscConfig+0x178>
 8000ef8:	682a      	ldr	r2, [r5, #0]
 8000efa:	2702      	movs	r7, #2
 8000efc:	4313      	orrs	r3, r2
 8000efe:	602b      	str	r3, [r5, #0]
 8000f00:	f7ff fd66 	bl	80009d0 <HAL_GetTick>
 8000f04:	0006      	movs	r6, r0
 8000f06:	682b      	ldr	r3, [r5, #0]
 8000f08:	423b      	tst	r3, r7
 8000f0a:	d1e9      	bne.n	8000ee0 <HAL_RCC_OscConfig+0x140>
 8000f0c:	f7ff fd60 	bl	80009d0 <HAL_GetTick>
 8000f10:	1b80      	subs	r0, r0, r6
 8000f12:	2802      	cmp	r0, #2
 8000f14:	d9f7      	bls.n	8000f06 <HAL_RCC_OscConfig+0x166>
 8000f16:	e7a5      	b.n	8000e64 <HAL_RCC_OscConfig+0xc4>
 8000f18:	682a      	ldr	r2, [r5, #0]
 8000f1a:	2702      	movs	r7, #2
 8000f1c:	439a      	bics	r2, r3
 8000f1e:	602a      	str	r2, [r5, #0]
 8000f20:	f7ff fd56 	bl	80009d0 <HAL_GetTick>
 8000f24:	0006      	movs	r6, r0
 8000f26:	682b      	ldr	r3, [r5, #0]
 8000f28:	423b      	tst	r3, r7
 8000f2a:	d100      	bne.n	8000f2e <HAL_RCC_OscConfig+0x18e>
 8000f2c:	e744      	b.n	8000db8 <HAL_RCC_OscConfig+0x18>
 8000f2e:	f7ff fd4f 	bl	80009d0 <HAL_GetTick>
 8000f32:	1b80      	subs	r0, r0, r6
 8000f34:	2802      	cmp	r0, #2
 8000f36:	d9f6      	bls.n	8000f26 <HAL_RCC_OscConfig+0x186>
 8000f38:	e794      	b.n	8000e64 <HAL_RCC_OscConfig+0xc4>
 8000f3a:	69e2      	ldr	r2, [r4, #28]
 8000f3c:	2301      	movs	r3, #1
 8000f3e:	4d5a      	ldr	r5, [pc, #360]	; (80010a8 <HAL_RCC_OscConfig+0x308>)
 8000f40:	2a00      	cmp	r2, #0
 8000f42:	d010      	beq.n	8000f66 <HAL_RCC_OscConfig+0x1c6>
 8000f44:	6a6a      	ldr	r2, [r5, #36]	; 0x24
 8000f46:	2702      	movs	r7, #2
 8000f48:	4313      	orrs	r3, r2
 8000f4a:	626b      	str	r3, [r5, #36]	; 0x24
 8000f4c:	f7ff fd40 	bl	80009d0 <HAL_GetTick>
 8000f50:	0006      	movs	r6, r0
 8000f52:	6a6b      	ldr	r3, [r5, #36]	; 0x24
 8000f54:	423b      	tst	r3, r7
 8000f56:	d000      	beq.n	8000f5a <HAL_RCC_OscConfig+0x1ba>
 8000f58:	e732      	b.n	8000dc0 <HAL_RCC_OscConfig+0x20>
 8000f5a:	f7ff fd39 	bl	80009d0 <HAL_GetTick>
 8000f5e:	1b80      	subs	r0, r0, r6
 8000f60:	2802      	cmp	r0, #2
 8000f62:	d9f6      	bls.n	8000f52 <HAL_RCC_OscConfig+0x1b2>
 8000f64:	e77e      	b.n	8000e64 <HAL_RCC_OscConfig+0xc4>
 8000f66:	6a6a      	ldr	r2, [r5, #36]	; 0x24
 8000f68:	2702      	movs	r7, #2
 8000f6a:	439a      	bics	r2, r3
 8000f6c:	626a      	str	r2, [r5, #36]	; 0x24
 8000f6e:	f7ff fd2f 	bl	80009d0 <HAL_GetTick>
 8000f72:	0006      	movs	r6, r0
 8000f74:	6a6b      	ldr	r3, [r5, #36]	; 0x24
 8000f76:	423b      	tst	r3, r7
 8000f78:	d100      	bne.n	8000f7c <HAL_RCC_OscConfig+0x1dc>
 8000f7a:	e721      	b.n	8000dc0 <HAL_RCC_OscConfig+0x20>
 8000f7c:	f7ff fd28 	bl	80009d0 <HAL_GetTick>
 8000f80:	1b80      	subs	r0, r0, r6
 8000f82:	2802      	cmp	r0, #2
 8000f84:	d9f6      	bls.n	8000f74 <HAL_RCC_OscConfig+0x1d4>
 8000f86:	e76d      	b.n	8000e64 <HAL_RCC_OscConfig+0xc4>
 8000f88:	2280      	movs	r2, #128	; 0x80
 8000f8a:	2100      	movs	r1, #0
 8000f8c:	4d46      	ldr	r5, [pc, #280]	; (80010a8 <HAL_RCC_OscConfig+0x308>)
 8000f8e:	0552      	lsls	r2, r2, #21
 8000f90:	69eb      	ldr	r3, [r5, #28]
 8000f92:	9100      	str	r1, [sp, #0]
 8000f94:	4213      	tst	r3, r2
 8000f96:	d108      	bne.n	8000faa <HAL_RCC_OscConfig+0x20a>
 8000f98:	69eb      	ldr	r3, [r5, #28]
 8000f9a:	4313      	orrs	r3, r2
 8000f9c:	61eb      	str	r3, [r5, #28]
 8000f9e:	69eb      	ldr	r3, [r5, #28]
 8000fa0:	4013      	ands	r3, r2
 8000fa2:	9303      	str	r3, [sp, #12]
 8000fa4:	9b03      	ldr	r3, [sp, #12]
 8000fa6:	2301      	movs	r3, #1
 8000fa8:	9300      	str	r3, [sp, #0]
 8000faa:	2780      	movs	r7, #128	; 0x80
 8000fac:	4e41      	ldr	r6, [pc, #260]	; (80010b4 <HAL_RCC_OscConfig+0x314>)
 8000fae:	007f      	lsls	r7, r7, #1
 8000fb0:	6833      	ldr	r3, [r6, #0]
 8000fb2:	423b      	tst	r3, r7
 8000fb4:	d006      	beq.n	8000fc4 <HAL_RCC_OscConfig+0x224>
 8000fb6:	68a3      	ldr	r3, [r4, #8]
 8000fb8:	2b01      	cmp	r3, #1
 8000fba:	d113      	bne.n	8000fe4 <HAL_RCC_OscConfig+0x244>
 8000fbc:	6a2a      	ldr	r2, [r5, #32]
 8000fbe:	4313      	orrs	r3, r2
 8000fc0:	622b      	str	r3, [r5, #32]
 8000fc2:	e030      	b.n	8001026 <HAL_RCC_OscConfig+0x286>
 8000fc4:	6833      	ldr	r3, [r6, #0]
 8000fc6:	433b      	orrs	r3, r7
 8000fc8:	6033      	str	r3, [r6, #0]
 8000fca:	f7ff fd01 	bl	80009d0 <HAL_GetTick>
 8000fce:	9001      	str	r0, [sp, #4]
 8000fd0:	6833      	ldr	r3, [r6, #0]
 8000fd2:	423b      	tst	r3, r7
 8000fd4:	d1ef      	bne.n	8000fb6 <HAL_RCC_OscConfig+0x216>
 8000fd6:	f7ff fcfb 	bl	80009d0 <HAL_GetTick>
 8000fda:	9b01      	ldr	r3, [sp, #4]
 8000fdc:	1ac0      	subs	r0, r0, r3
 8000fde:	2864      	cmp	r0, #100	; 0x64
 8000fe0:	d9f6      	bls.n	8000fd0 <HAL_RCC_OscConfig+0x230>
 8000fe2:	e73f      	b.n	8000e64 <HAL_RCC_OscConfig+0xc4>
 8000fe4:	2201      	movs	r2, #1
 8000fe6:	2b00      	cmp	r3, #0
 8000fe8:	d114      	bne.n	8001014 <HAL_RCC_OscConfig+0x274>
 8000fea:	6a2b      	ldr	r3, [r5, #32]
 8000fec:	2702      	movs	r7, #2
 8000fee:	4393      	bics	r3, r2
 8000ff0:	622b      	str	r3, [r5, #32]
 8000ff2:	6a2b      	ldr	r3, [r5, #32]
 8000ff4:	3203      	adds	r2, #3
 8000ff6:	4393      	bics	r3, r2
 8000ff8:	622b      	str	r3, [r5, #32]
 8000ffa:	f7ff fce9 	bl	80009d0 <HAL_GetTick>
 8000ffe:	0006      	movs	r6, r0
 8001000:	6a2b      	ldr	r3, [r5, #32]
 8001002:	423b      	tst	r3, r7
 8001004:	d016      	beq.n	8001034 <HAL_RCC_OscConfig+0x294>
 8001006:	f7ff fce3 	bl	80009d0 <HAL_GetTick>
 800100a:	4b2b      	ldr	r3, [pc, #172]	; (80010b8 <HAL_RCC_OscConfig+0x318>)
 800100c:	1b80      	subs	r0, r0, r6
 800100e:	4298      	cmp	r0, r3
 8001010:	d9f6      	bls.n	8001000 <HAL_RCC_OscConfig+0x260>
 8001012:	e727      	b.n	8000e64 <HAL_RCC_OscConfig+0xc4>
 8001014:	2b05      	cmp	r3, #5
 8001016:	d116      	bne.n	8001046 <HAL_RCC_OscConfig+0x2a6>
 8001018:	6a29      	ldr	r1, [r5, #32]
 800101a:	3b01      	subs	r3, #1
 800101c:	430b      	orrs	r3, r1
 800101e:	622b      	str	r3, [r5, #32]
 8001020:	6a2b      	ldr	r3, [r5, #32]
 8001022:	431a      	orrs	r2, r3
 8001024:	622a      	str	r2, [r5, #32]
 8001026:	f7ff fcd3 	bl	80009d0 <HAL_GetTick>
 800102a:	2702      	movs	r7, #2
 800102c:	0006      	movs	r6, r0
 800102e:	6a2b      	ldr	r3, [r5, #32]
 8001030:	423b      	tst	r3, r7
 8001032:	d00f      	beq.n	8001054 <HAL_RCC_OscConfig+0x2b4>
 8001034:	9b00      	ldr	r3, [sp, #0]
 8001036:	2b01      	cmp	r3, #1
 8001038:	d000      	beq.n	800103c <HAL_RCC_OscConfig+0x29c>
 800103a:	e6c5      	b.n	8000dc8 <HAL_RCC_OscConfig+0x28>
 800103c:	69eb      	ldr	r3, [r5, #28]
 800103e:	4a1f      	ldr	r2, [pc, #124]	; (80010bc <HAL_RCC_OscConfig+0x31c>)
 8001040:	4013      	ands	r3, r2
 8001042:	61eb      	str	r3, [r5, #28]
 8001044:	e6c0      	b.n	8000dc8 <HAL_RCC_OscConfig+0x28>
 8001046:	6a2b      	ldr	r3, [r5, #32]
 8001048:	4393      	bics	r3, r2
 800104a:	2204      	movs	r2, #4
 800104c:	622b      	str	r3, [r5, #32]
 800104e:	6a2b      	ldr	r3, [r5, #32]
 8001050:	4393      	bics	r3, r2
 8001052:	e7b5      	b.n	8000fc0 <HAL_RCC_OscConfig+0x220>
 8001054:	f7ff fcbc 	bl	80009d0 <HAL_GetTick>
 8001058:	4b17      	ldr	r3, [pc, #92]	; (80010b8 <HAL_RCC_OscConfig+0x318>)
 800105a:	1b80      	subs	r0, r0, r6
 800105c:	4298      	cmp	r0, r3
 800105e:	d9e6      	bls.n	800102e <HAL_RCC_OscConfig+0x28e>
 8001060:	e700      	b.n	8000e64 <HAL_RCC_OscConfig+0xc4>
 8001062:	f7ff fcb5 	bl	80009d0 <HAL_GetTick>
 8001066:	1b80      	subs	r0, r0, r6
 8001068:	2802      	cmp	r0, #2
 800106a:	d800      	bhi.n	800106e <HAL_RCC_OscConfig+0x2ce>
 800106c:	e6bf      	b.n	8000dee <HAL_RCC_OscConfig+0x4e>
 800106e:	e6f9      	b.n	8000e64 <HAL_RCC_OscConfig+0xc4>
 8001070:	3205      	adds	r2, #5
 8001072:	d103      	bne.n	800107c <HAL_RCC_OscConfig+0x2dc>
 8001074:	6b6a      	ldr	r2, [r5, #52]	; 0x34
 8001076:	439a      	bics	r2, r3
 8001078:	636a      	str	r2, [r5, #52]	; 0x34
 800107a:	e6bc      	b.n	8000df6 <HAL_RCC_OscConfig+0x56>
 800107c:	6b6a      	ldr	r2, [r5, #52]	; 0x34
 800107e:	2702      	movs	r7, #2
 8001080:	4313      	orrs	r3, r2
 8001082:	2201      	movs	r2, #1
 8001084:	636b      	str	r3, [r5, #52]	; 0x34
 8001086:	6b6b      	ldr	r3, [r5, #52]	; 0x34
 8001088:	4393      	bics	r3, r2
 800108a:	636b      	str	r3, [r5, #52]	; 0x34
 800108c:	f7ff fca0 	bl	80009d0 <HAL_GetTick>
 8001090:	0006      	movs	r6, r0
 8001092:	6b6b      	ldr	r3, [r5, #52]	; 0x34
 8001094:	423b      	tst	r3, r7
 8001096:	d100      	bne.n	800109a <HAL_RCC_OscConfig+0x2fa>
 8001098:	e6b4      	b.n	8000e04 <HAL_RCC_OscConfig+0x64>
 800109a:	f7ff fc99 	bl	80009d0 <HAL_GetTick>
 800109e:	1b80      	subs	r0, r0, r6
 80010a0:	2802      	cmp	r0, #2
 80010a2:	d9f6      	bls.n	8001092 <HAL_RCC_OscConfig+0x2f2>
 80010a4:	e6de      	b.n	8000e64 <HAL_RCC_OscConfig+0xc4>
 80010a6:	46c0      	nop			; (mov r8, r8)
 80010a8:	40021000 	.word	0x40021000
 80010ac:	fffeffff 	.word	0xfffeffff
 80010b0:	fffbffff 	.word	0xfffbffff
 80010b4:	40007000 	.word	0x40007000
 80010b8:	00001388 	.word	0x00001388
 80010bc:	efffffff 	.word	0xefffffff
 80010c0:	210c      	movs	r1, #12
 80010c2:	4d34      	ldr	r5, [pc, #208]	; (8001194 <HAL_RCC_OscConfig+0x3f4>)
 80010c4:	686a      	ldr	r2, [r5, #4]
 80010c6:	400a      	ands	r2, r1
 80010c8:	2a08      	cmp	r2, #8
 80010ca:	d047      	beq.n	800115c <HAL_RCC_OscConfig+0x3bc>
 80010cc:	4a32      	ldr	r2, [pc, #200]	; (8001198 <HAL_RCC_OscConfig+0x3f8>)
 80010ce:	2b02      	cmp	r3, #2
 80010d0:	d132      	bne.n	8001138 <HAL_RCC_OscConfig+0x398>
 80010d2:	682b      	ldr	r3, [r5, #0]
 80010d4:	2780      	movs	r7, #128	; 0x80
 80010d6:	4013      	ands	r3, r2
 80010d8:	602b      	str	r3, [r5, #0]
 80010da:	f7ff fc79 	bl	80009d0 <HAL_GetTick>
 80010de:	0006      	movs	r6, r0
 80010e0:	04bf      	lsls	r7, r7, #18
 80010e2:	682b      	ldr	r3, [r5, #0]
 80010e4:	423b      	tst	r3, r7
 80010e6:	d121      	bne.n	800112c <HAL_RCC_OscConfig+0x38c>
 80010e8:	220f      	movs	r2, #15
 80010ea:	6aeb      	ldr	r3, [r5, #44]	; 0x2c
 80010ec:	2680      	movs	r6, #128	; 0x80
 80010ee:	4393      	bics	r3, r2
 80010f0:	6ae2      	ldr	r2, [r4, #44]	; 0x2c
 80010f2:	04b6      	lsls	r6, r6, #18
 80010f4:	4313      	orrs	r3, r2
 80010f6:	62eb      	str	r3, [r5, #44]	; 0x2c
 80010f8:	6a61      	ldr	r1, [r4, #36]	; 0x24
 80010fa:	6aa3      	ldr	r3, [r4, #40]	; 0x28
 80010fc:	686a      	ldr	r2, [r5, #4]
 80010fe:	430b      	orrs	r3, r1
 8001100:	4926      	ldr	r1, [pc, #152]	; (800119c <HAL_RCC_OscConfig+0x3fc>)
 8001102:	400a      	ands	r2, r1
 8001104:	4313      	orrs	r3, r2
 8001106:	606b      	str	r3, [r5, #4]
 8001108:	2380      	movs	r3, #128	; 0x80
 800110a:	682a      	ldr	r2, [r5, #0]
 800110c:	045b      	lsls	r3, r3, #17
 800110e:	4313      	orrs	r3, r2
 8001110:	602b      	str	r3, [r5, #0]
 8001112:	f7ff fc5d 	bl	80009d0 <HAL_GetTick>
 8001116:	0004      	movs	r4, r0
 8001118:	682b      	ldr	r3, [r5, #0]
 800111a:	4233      	tst	r3, r6
 800111c:	d000      	beq.n	8001120 <HAL_RCC_OscConfig+0x380>
 800111e:	e675      	b.n	8000e0c <HAL_RCC_OscConfig+0x6c>
 8001120:	f7ff fc56 	bl	80009d0 <HAL_GetTick>
 8001124:	1b00      	subs	r0, r0, r4
 8001126:	2802      	cmp	r0, #2
 8001128:	d9f6      	bls.n	8001118 <HAL_RCC_OscConfig+0x378>
 800112a:	e69b      	b.n	8000e64 <HAL_RCC_OscConfig+0xc4>
 800112c:	f7ff fc50 	bl	80009d0 <HAL_GetTick>
 8001130:	1b80      	subs	r0, r0, r6
 8001132:	2802      	cmp	r0, #2
 8001134:	d9d5      	bls.n	80010e2 <HAL_RCC_OscConfig+0x342>
 8001136:	e695      	b.n	8000e64 <HAL_RCC_OscConfig+0xc4>
 8001138:	682b      	ldr	r3, [r5, #0]
 800113a:	2680      	movs	r6, #128	; 0x80
 800113c:	4013      	ands	r3, r2
 800113e:	602b      	str	r3, [r5, #0]
 8001140:	f7ff fc46 	bl	80009d0 <HAL_GetTick>
 8001144:	0004      	movs	r4, r0
 8001146:	04b6      	lsls	r6, r6, #18
 8001148:	682b      	ldr	r3, [r5, #0]
 800114a:	4233      	tst	r3, r6
 800114c:	d100      	bne.n	8001150 <HAL_RCC_OscConfig+0x3b0>
 800114e:	e65d      	b.n	8000e0c <HAL_RCC_OscConfig+0x6c>
 8001150:	f7ff fc3e 	bl	80009d0 <HAL_GetTick>
 8001154:	1b00      	subs	r0, r0, r4
 8001156:	2802      	cmp	r0, #2
 8001158:	d9f6      	bls.n	8001148 <HAL_RCC_OscConfig+0x3a8>
 800115a:	e683      	b.n	8000e64 <HAL_RCC_OscConfig+0xc4>
 800115c:	0018      	movs	r0, r3
 800115e:	2b01      	cmp	r3, #1
 8001160:	d100      	bne.n	8001164 <HAL_RCC_OscConfig+0x3c4>
 8001162:	e680      	b.n	8000e66 <HAL_RCC_OscConfig+0xc6>
 8001164:	2180      	movs	r1, #128	; 0x80
 8001166:	686b      	ldr	r3, [r5, #4]
 8001168:	6a60      	ldr	r0, [r4, #36]	; 0x24
 800116a:	0249      	lsls	r1, r1, #9
 800116c:	6aea      	ldr	r2, [r5, #44]	; 0x2c
 800116e:	4019      	ands	r1, r3
 8001170:	4281      	cmp	r1, r0
 8001172:	d000      	beq.n	8001176 <HAL_RCC_OscConfig+0x3d6>
 8001174:	e65f      	b.n	8000e36 <HAL_RCC_OscConfig+0x96>
 8001176:	210f      	movs	r1, #15
 8001178:	400a      	ands	r2, r1
 800117a:	6ae1      	ldr	r1, [r4, #44]	; 0x2c
 800117c:	428a      	cmp	r2, r1
 800117e:	d000      	beq.n	8001182 <HAL_RCC_OscConfig+0x3e2>
 8001180:	e659      	b.n	8000e36 <HAL_RCC_OscConfig+0x96>
 8001182:	22f0      	movs	r2, #240	; 0xf0
 8001184:	0392      	lsls	r2, r2, #14
 8001186:	4013      	ands	r3, r2
 8001188:	6aa2      	ldr	r2, [r4, #40]	; 0x28
 800118a:	4293      	cmp	r3, r2
 800118c:	d100      	bne.n	8001190 <HAL_RCC_OscConfig+0x3f0>
 800118e:	e63d      	b.n	8000e0c <HAL_RCC_OscConfig+0x6c>
 8001190:	e651      	b.n	8000e36 <HAL_RCC_OscConfig+0x96>
 8001192:	46c0      	nop			; (mov r8, r8)
 8001194:	40021000 	.word	0x40021000
 8001198:	feffffff 	.word	0xfeffffff
 800119c:	ffc2ffff 	.word	0xffc2ffff

080011a0 <HAL_RCC_GetSysClockFreq>:
 80011a0:	b570      	push	{r4, r5, r6, lr}
 80011a2:	b088      	sub	sp, #32
 80011a4:	2210      	movs	r2, #16
 80011a6:	4914      	ldr	r1, [pc, #80]	; (80011f8 <HAL_RCC_GetSysClockFreq+0x58>)
 80011a8:	4668      	mov	r0, sp
 80011aa:	ad04      	add	r5, sp, #16
 80011ac:	f000 ff48 	bl	8002040 <memcpy>
 80011b0:	2210      	movs	r2, #16
 80011b2:	0028      	movs	r0, r5
 80011b4:	4911      	ldr	r1, [pc, #68]	; (80011fc <HAL_RCC_GetSysClockFreq+0x5c>)
 80011b6:	f000 ff43 	bl	8002040 <memcpy>
 80011ba:	230c      	movs	r3, #12
 80011bc:	4e10      	ldr	r6, [pc, #64]	; (8001200 <HAL_RCC_GetSysClockFreq+0x60>)
 80011be:	6872      	ldr	r2, [r6, #4]
 80011c0:	4013      	ands	r3, r2
 80011c2:	2b04      	cmp	r3, #4
 80011c4:	d013      	beq.n	80011ee <HAL_RCC_GetSysClockFreq+0x4e>
 80011c6:	2b08      	cmp	r3, #8
 80011c8:	d113      	bne.n	80011f2 <HAL_RCC_GetSysClockFreq+0x52>
 80011ca:	200f      	movs	r0, #15
 80011cc:	466b      	mov	r3, sp
 80011ce:	0c91      	lsrs	r1, r2, #18
 80011d0:	4001      	ands	r1, r0
 80011d2:	5c5c      	ldrb	r4, [r3, r1]
 80011d4:	6af3      	ldr	r3, [r6, #44]	; 0x2c
 80011d6:	4003      	ands	r3, r0
 80011d8:	5ce9      	ldrb	r1, [r5, r3]
 80011da:	03d3      	lsls	r3, r2, #15
 80011dc:	d505      	bpl.n	80011ea <HAL_RCC_GetSysClockFreq+0x4a>
 80011de:	4809      	ldr	r0, [pc, #36]	; (8001204 <HAL_RCC_GetSysClockFreq+0x64>)
 80011e0:	f7fe ffa6 	bl	8000130 <__udivsi3>
 80011e4:	4360      	muls	r0, r4
 80011e6:	b008      	add	sp, #32
 80011e8:	bd70      	pop	{r4, r5, r6, pc}
 80011ea:	4807      	ldr	r0, [pc, #28]	; (8001208 <HAL_RCC_GetSysClockFreq+0x68>)
 80011ec:	e7fa      	b.n	80011e4 <HAL_RCC_GetSysClockFreq+0x44>
 80011ee:	4805      	ldr	r0, [pc, #20]	; (8001204 <HAL_RCC_GetSysClockFreq+0x64>)
 80011f0:	e7f9      	b.n	80011e6 <HAL_RCC_GetSysClockFreq+0x46>
 80011f2:	4806      	ldr	r0, [pc, #24]	; (800120c <HAL_RCC_GetSysClockFreq+0x6c>)
 80011f4:	e7f7      	b.n	80011e6 <HAL_RCC_GetSysClockFreq+0x46>
 80011f6:	46c0      	nop			; (mov r8, r8)
 80011f8:	08002109 	.word	0x08002109
 80011fc:	0800211a 	.word	0x0800211a
 8001200:	40021000 	.word	0x40021000
 8001204:	016e3600 	.word	0x016e3600
 8001208:	003d0900 	.word	0x003d0900
 800120c:	007a1200 	.word	0x007a1200

08001210 <HAL_RCC_ClockConfig>:
 8001210:	b5f7      	push	{r0, r1, r2, r4, r5, r6, r7, lr}
 8001212:	0004      	movs	r4, r0
 8001214:	000e      	movs	r6, r1
 8001216:	2800      	cmp	r0, #0
 8001218:	d101      	bne.n	800121e <HAL_RCC_ClockConfig+0xe>
 800121a:	2001      	movs	r0, #1
 800121c:	bdfe      	pop	{r1, r2, r3, r4, r5, r6, r7, pc}
 800121e:	2201      	movs	r2, #1
 8001220:	4d37      	ldr	r5, [pc, #220]	; (8001300 <HAL_RCC_ClockConfig+0xf0>)
 8001222:	682b      	ldr	r3, [r5, #0]
 8001224:	4013      	ands	r3, r2
 8001226:	428b      	cmp	r3, r1
 8001228:	d31c      	bcc.n	8001264 <HAL_RCC_ClockConfig+0x54>
 800122a:	6821      	ldr	r1, [r4, #0]
 800122c:	078b      	lsls	r3, r1, #30
 800122e:	d422      	bmi.n	8001276 <HAL_RCC_ClockConfig+0x66>
 8001230:	07cb      	lsls	r3, r1, #31
 8001232:	d42f      	bmi.n	8001294 <HAL_RCC_ClockConfig+0x84>
 8001234:	2301      	movs	r3, #1
 8001236:	682a      	ldr	r2, [r5, #0]
 8001238:	401a      	ands	r2, r3
 800123a:	42b2      	cmp	r2, r6
 800123c:	d851      	bhi.n	80012e2 <HAL_RCC_ClockConfig+0xd2>
 800123e:	6823      	ldr	r3, [r4, #0]
 8001240:	4d30      	ldr	r5, [pc, #192]	; (8001304 <HAL_RCC_ClockConfig+0xf4>)
 8001242:	075b      	lsls	r3, r3, #29
 8001244:	d454      	bmi.n	80012f0 <HAL_RCC_ClockConfig+0xe0>
 8001246:	f7ff ffab 	bl	80011a0 <HAL_RCC_GetSysClockFreq>
 800124a:	686b      	ldr	r3, [r5, #4]
 800124c:	4a2e      	ldr	r2, [pc, #184]	; (8001308 <HAL_RCC_ClockConfig+0xf8>)
 800124e:	061b      	lsls	r3, r3, #24
 8001250:	0f1b      	lsrs	r3, r3, #28
 8001252:	5cd3      	ldrb	r3, [r2, r3]
 8001254:	40d8      	lsrs	r0, r3
 8001256:	4b2d      	ldr	r3, [pc, #180]	; (800130c <HAL_RCC_ClockConfig+0xfc>)
 8001258:	6018      	str	r0, [r3, #0]
 800125a:	2000      	movs	r0, #0
 800125c:	f7ff fb78 	bl	8000950 <HAL_InitTick>
 8001260:	2000      	movs	r0, #0
 8001262:	e7db      	b.n	800121c <HAL_RCC_ClockConfig+0xc>
 8001264:	682b      	ldr	r3, [r5, #0]
 8001266:	4393      	bics	r3, r2
 8001268:	430b      	orrs	r3, r1
 800126a:	602b      	str	r3, [r5, #0]
 800126c:	682b      	ldr	r3, [r5, #0]
 800126e:	4013      	ands	r3, r2
 8001270:	428b      	cmp	r3, r1
 8001272:	d1d2      	bne.n	800121a <HAL_RCC_ClockConfig+0xa>
 8001274:	e7d9      	b.n	800122a <HAL_RCC_ClockConfig+0x1a>
 8001276:	4a23      	ldr	r2, [pc, #140]	; (8001304 <HAL_RCC_ClockConfig+0xf4>)
 8001278:	074b      	lsls	r3, r1, #29
 800127a:	d504      	bpl.n	8001286 <HAL_RCC_ClockConfig+0x76>
 800127c:	23e0      	movs	r3, #224	; 0xe0
 800127e:	6850      	ldr	r0, [r2, #4]
 8001280:	00db      	lsls	r3, r3, #3
 8001282:	4303      	orrs	r3, r0
 8001284:	6053      	str	r3, [r2, #4]
 8001286:	20f0      	movs	r0, #240	; 0xf0
 8001288:	6853      	ldr	r3, [r2, #4]
 800128a:	4383      	bics	r3, r0
 800128c:	68a0      	ldr	r0, [r4, #8]
 800128e:	4303      	orrs	r3, r0
 8001290:	6053      	str	r3, [r2, #4]
 8001292:	e7cd      	b.n	8001230 <HAL_RCC_ClockConfig+0x20>
 8001294:	4f1b      	ldr	r7, [pc, #108]	; (8001304 <HAL_RCC_ClockConfig+0xf4>)
 8001296:	6862      	ldr	r2, [r4, #4]
 8001298:	683b      	ldr	r3, [r7, #0]
 800129a:	2a01      	cmp	r2, #1
 800129c:	d119      	bne.n	80012d2 <HAL_RCC_ClockConfig+0xc2>
 800129e:	039b      	lsls	r3, r3, #14
 80012a0:	d5bb      	bpl.n	800121a <HAL_RCC_ClockConfig+0xa>
 80012a2:	2103      	movs	r1, #3
 80012a4:	687b      	ldr	r3, [r7, #4]
 80012a6:	438b      	bics	r3, r1
 80012a8:	4313      	orrs	r3, r2
 80012aa:	607b      	str	r3, [r7, #4]
 80012ac:	f7ff fb90 	bl	80009d0 <HAL_GetTick>
 80012b0:	9001      	str	r0, [sp, #4]
 80012b2:	230c      	movs	r3, #12
 80012b4:	687a      	ldr	r2, [r7, #4]
 80012b6:	401a      	ands	r2, r3
 80012b8:	6863      	ldr	r3, [r4, #4]
 80012ba:	009b      	lsls	r3, r3, #2
 80012bc:	429a      	cmp	r2, r3
 80012be:	d0b9      	beq.n	8001234 <HAL_RCC_ClockConfig+0x24>
 80012c0:	f7ff fb86 	bl	80009d0 <HAL_GetTick>
 80012c4:	9b01      	ldr	r3, [sp, #4]
 80012c6:	1ac0      	subs	r0, r0, r3
 80012c8:	4b11      	ldr	r3, [pc, #68]	; (8001310 <HAL_RCC_ClockConfig+0x100>)
 80012ca:	4298      	cmp	r0, r3
 80012cc:	d9f1      	bls.n	80012b2 <HAL_RCC_ClockConfig+0xa2>
 80012ce:	2003      	movs	r0, #3
 80012d0:	e7a4      	b.n	800121c <HAL_RCC_ClockConfig+0xc>
 80012d2:	2a02      	cmp	r2, #2
 80012d4:	d102      	bne.n	80012dc <HAL_RCC_ClockConfig+0xcc>
 80012d6:	019b      	lsls	r3, r3, #6
 80012d8:	d4e3      	bmi.n	80012a2 <HAL_RCC_ClockConfig+0x92>
 80012da:	e79e      	b.n	800121a <HAL_RCC_ClockConfig+0xa>
 80012dc:	079b      	lsls	r3, r3, #30
 80012de:	d4e0      	bmi.n	80012a2 <HAL_RCC_ClockConfig+0x92>
 80012e0:	e79b      	b.n	800121a <HAL_RCC_ClockConfig+0xa>
 80012e2:	682a      	ldr	r2, [r5, #0]
 80012e4:	439a      	bics	r2, r3
 80012e6:	602a      	str	r2, [r5, #0]
 80012e8:	682a      	ldr	r2, [r5, #0]
 80012ea:	421a      	tst	r2, r3
 80012ec:	d0a7      	beq.n	800123e <HAL_RCC_ClockConfig+0x2e>
 80012ee:	e794      	b.n	800121a <HAL_RCC_ClockConfig+0xa>
 80012f0:	686b      	ldr	r3, [r5, #4]
 80012f2:	4a08      	ldr	r2, [pc, #32]	; (8001314 <HAL_RCC_ClockConfig+0x104>)
 80012f4:	4013      	ands	r3, r2
 80012f6:	68e2      	ldr	r2, [r4, #12]
 80012f8:	4313      	orrs	r3, r2
 80012fa:	606b      	str	r3, [r5, #4]
 80012fc:	e7a3      	b.n	8001246 <HAL_RCC_ClockConfig+0x36>
 80012fe:	46c0      	nop			; (mov r8, r8)
 8001300:	40022000 	.word	0x40022000
 8001304:	40021000 	.word	0x40021000
 8001308:	080020f1 	.word	0x080020f1
 800130c:	2000000c 	.word	0x2000000c
 8001310:	00001388 	.word	0x00001388
 8001314:	fffff8ff 	.word	0xfffff8ff

08001318 <HAL_RCC_GetPCLK1Freq>:
 8001318:	4b04      	ldr	r3, [pc, #16]	; (800132c <HAL_RCC_GetPCLK1Freq+0x14>)
 800131a:	4a05      	ldr	r2, [pc, #20]	; (8001330 <HAL_RCC_GetPCLK1Freq+0x18>)
 800131c:	685b      	ldr	r3, [r3, #4]
 800131e:	055b      	lsls	r3, r3, #21
 8001320:	0f5b      	lsrs	r3, r3, #29
 8001322:	5cd3      	ldrb	r3, [r2, r3]
 8001324:	4a03      	ldr	r2, [pc, #12]	; (8001334 <HAL_RCC_GetPCLK1Freq+0x1c>)
 8001326:	6810      	ldr	r0, [r2, #0]
 8001328:	40d8      	lsrs	r0, r3
 800132a:	4770      	bx	lr
 800132c:	40021000 	.word	0x40021000
 8001330:	08002101 	.word	0x08002101
 8001334:	2000000c 	.word	0x2000000c

08001338 <HAL_RCCEx_PeriphCLKConfig>:
 8001338:	b5f0      	push	{r4, r5, r6, r7, lr}
 800133a:	6803      	ldr	r3, [r0, #0]
 800133c:	0005      	movs	r5, r0
 800133e:	b085      	sub	sp, #20
 8001340:	03db      	lsls	r3, r3, #15
 8001342:	d52a      	bpl.n	800139a <HAL_RCCEx_PeriphCLKConfig+0x62>
 8001344:	2280      	movs	r2, #128	; 0x80
 8001346:	2100      	movs	r1, #0
 8001348:	4c38      	ldr	r4, [pc, #224]	; (800142c <HAL_RCCEx_PeriphCLKConfig+0xf4>)
 800134a:	0552      	lsls	r2, r2, #21
 800134c:	69e3      	ldr	r3, [r4, #28]
 800134e:	9100      	str	r1, [sp, #0]
 8001350:	4213      	tst	r3, r2
 8001352:	d108      	bne.n	8001366 <HAL_RCCEx_PeriphCLKConfig+0x2e>
 8001354:	69e3      	ldr	r3, [r4, #28]
 8001356:	4313      	orrs	r3, r2
 8001358:	61e3      	str	r3, [r4, #28]
 800135a:	69e3      	ldr	r3, [r4, #28]
 800135c:	4013      	ands	r3, r2
 800135e:	9303      	str	r3, [sp, #12]
 8001360:	9b03      	ldr	r3, [sp, #12]
 8001362:	2301      	movs	r3, #1
 8001364:	9300      	str	r3, [sp, #0]
 8001366:	2780      	movs	r7, #128	; 0x80
 8001368:	4e31      	ldr	r6, [pc, #196]	; (8001430 <HAL_RCCEx_PeriphCLKConfig+0xf8>)
 800136a:	007f      	lsls	r7, r7, #1
 800136c:	6833      	ldr	r3, [r6, #0]
 800136e:	423b      	tst	r3, r7
 8001370:	d028      	beq.n	80013c4 <HAL_RCCEx_PeriphCLKConfig+0x8c>
 8001372:	6a22      	ldr	r2, [r4, #32]
 8001374:	23c0      	movs	r3, #192	; 0xc0
 8001376:	0011      	movs	r1, r2
 8001378:	009b      	lsls	r3, r3, #2
 800137a:	4e2e      	ldr	r6, [pc, #184]	; (8001434 <HAL_RCCEx_PeriphCLKConfig+0xfc>)
 800137c:	4019      	ands	r1, r3
 800137e:	421a      	tst	r2, r3
 8001380:	d132      	bne.n	80013e8 <HAL_RCCEx_PeriphCLKConfig+0xb0>
 8001382:	6a23      	ldr	r3, [r4, #32]
 8001384:	401e      	ands	r6, r3
 8001386:	686b      	ldr	r3, [r5, #4]
 8001388:	431e      	orrs	r6, r3
 800138a:	9b00      	ldr	r3, [sp, #0]
 800138c:	6226      	str	r6, [r4, #32]
 800138e:	2b01      	cmp	r3, #1
 8001390:	d103      	bne.n	800139a <HAL_RCCEx_PeriphCLKConfig+0x62>
 8001392:	69e3      	ldr	r3, [r4, #28]
 8001394:	4a28      	ldr	r2, [pc, #160]	; (8001438 <HAL_RCCEx_PeriphCLKConfig+0x100>)
 8001396:	4013      	ands	r3, r2
 8001398:	61e3      	str	r3, [r4, #28]
 800139a:	682a      	ldr	r2, [r5, #0]
 800139c:	07d3      	lsls	r3, r2, #31
 800139e:	d506      	bpl.n	80013ae <HAL_RCCEx_PeriphCLKConfig+0x76>
 80013a0:	2003      	movs	r0, #3
 80013a2:	4922      	ldr	r1, [pc, #136]	; (800142c <HAL_RCCEx_PeriphCLKConfig+0xf4>)
 80013a4:	6b0b      	ldr	r3, [r1, #48]	; 0x30
 80013a6:	4383      	bics	r3, r0
 80013a8:	68a8      	ldr	r0, [r5, #8]
 80013aa:	4303      	orrs	r3, r0
 80013ac:	630b      	str	r3, [r1, #48]	; 0x30
 80013ae:	2000      	movs	r0, #0
 80013b0:	0693      	lsls	r3, r2, #26
 80013b2:	d517      	bpl.n	80013e4 <HAL_RCCEx_PeriphCLKConfig+0xac>
 80013b4:	2110      	movs	r1, #16
 80013b6:	4a1d      	ldr	r2, [pc, #116]	; (800142c <HAL_RCCEx_PeriphCLKConfig+0xf4>)
 80013b8:	6b13      	ldr	r3, [r2, #48]	; 0x30
 80013ba:	438b      	bics	r3, r1
 80013bc:	68e9      	ldr	r1, [r5, #12]
 80013be:	430b      	orrs	r3, r1
 80013c0:	6313      	str	r3, [r2, #48]	; 0x30
 80013c2:	e00f      	b.n	80013e4 <HAL_RCCEx_PeriphCLKConfig+0xac>
 80013c4:	6833      	ldr	r3, [r6, #0]
 80013c6:	433b      	orrs	r3, r7
 80013c8:	6033      	str	r3, [r6, #0]
 80013ca:	f7ff fb01 	bl	80009d0 <HAL_GetTick>
 80013ce:	9001      	str	r0, [sp, #4]
 80013d0:	6833      	ldr	r3, [r6, #0]
 80013d2:	423b      	tst	r3, r7
 80013d4:	d1cd      	bne.n	8001372 <HAL_RCCEx_PeriphCLKConfig+0x3a>
 80013d6:	f7ff fafb 	bl	80009d0 <HAL_GetTick>
 80013da:	9b01      	ldr	r3, [sp, #4]
 80013dc:	1ac0      	subs	r0, r0, r3
 80013de:	2864      	cmp	r0, #100	; 0x64
 80013e0:	d9f6      	bls.n	80013d0 <HAL_RCCEx_PeriphCLKConfig+0x98>
 80013e2:	2003      	movs	r0, #3
 80013e4:	b005      	add	sp, #20
 80013e6:	bdf0      	pop	{r4, r5, r6, r7, pc}
 80013e8:	686a      	ldr	r2, [r5, #4]
 80013ea:	4013      	ands	r3, r2
 80013ec:	428b      	cmp	r3, r1
 80013ee:	d0c8      	beq.n	8001382 <HAL_RCCEx_PeriphCLKConfig+0x4a>
 80013f0:	2380      	movs	r3, #128	; 0x80
 80013f2:	6a22      	ldr	r2, [r4, #32]
 80013f4:	6a20      	ldr	r0, [r4, #32]
 80013f6:	0011      	movs	r1, r2
 80013f8:	025b      	lsls	r3, r3, #9
 80013fa:	4303      	orrs	r3, r0
 80013fc:	6223      	str	r3, [r4, #32]
 80013fe:	6a23      	ldr	r3, [r4, #32]
 8001400:	480e      	ldr	r0, [pc, #56]	; (800143c <HAL_RCCEx_PeriphCLKConfig+0x104>)
 8001402:	4031      	ands	r1, r6
 8001404:	4003      	ands	r3, r0
 8001406:	6223      	str	r3, [r4, #32]
 8001408:	6221      	str	r1, [r4, #32]
 800140a:	07d3      	lsls	r3, r2, #31
 800140c:	d5b9      	bpl.n	8001382 <HAL_RCCEx_PeriphCLKConfig+0x4a>
 800140e:	f7ff fadf 	bl	80009d0 <HAL_GetTick>
 8001412:	0007      	movs	r7, r0
 8001414:	2202      	movs	r2, #2
 8001416:	6a23      	ldr	r3, [r4, #32]
 8001418:	4213      	tst	r3, r2
 800141a:	d1b2      	bne.n	8001382 <HAL_RCCEx_PeriphCLKConfig+0x4a>
 800141c:	f7ff fad8 	bl	80009d0 <HAL_GetTick>
 8001420:	4b07      	ldr	r3, [pc, #28]	; (8001440 <HAL_RCCEx_PeriphCLKConfig+0x108>)
 8001422:	1bc0      	subs	r0, r0, r7
 8001424:	4298      	cmp	r0, r3
 8001426:	d9f5      	bls.n	8001414 <HAL_RCCEx_PeriphCLKConfig+0xdc>
 8001428:	e7db      	b.n	80013e2 <HAL_RCCEx_PeriphCLKConfig+0xaa>
 800142a:	46c0      	nop			; (mov r8, r8)
 800142c:	40021000 	.word	0x40021000
 8001430:	40007000 	.word	0x40007000
 8001434:	fffffcff 	.word	0xfffffcff
 8001438:	efffffff 	.word	0xefffffff
 800143c:	fffeffff 	.word	0xfffeffff
 8001440:	00001388 	.word	0x00001388

08001444 <SPI_WaitFifoStateUntilTimeout.constprop.0>:
 8001444:	b5f0      	push	{r4, r5, r6, r7, lr}
 8001446:	0017      	movs	r7, r2
 8001448:	2200      	movs	r2, #0
 800144a:	b085      	sub	sp, #20
 800144c:	001d      	movs	r5, r3
 800144e:	ab02      	add	r3, sp, #8
 8001450:	70da      	strb	r2, [r3, #3]
 8001452:	0004      	movs	r4, r0
 8001454:	000e      	movs	r6, r1
 8001456:	f7ff fabb 	bl	80009d0 <HAL_GetTick>
 800145a:	19ed      	adds	r5, r5, r7
 800145c:	1a2d      	subs	r5, r5, r0
 800145e:	f7ff fab7 	bl	80009d0 <HAL_GetTick>
 8001462:	2223      	movs	r2, #35	; 0x23
 8001464:	6823      	ldr	r3, [r4, #0]
 8001466:	9000      	str	r0, [sp, #0]
 8001468:	9301      	str	r3, [sp, #4]
 800146a:	4b2a      	ldr	r3, [pc, #168]	; (8001514 <SPI_WaitFifoStateUntilTimeout.constprop.0+0xd0>)
 800146c:	681b      	ldr	r3, [r3, #0]
 800146e:	4353      	muls	r3, r2
 8001470:	0d1b      	lsrs	r3, r3, #20
 8001472:	436b      	muls	r3, r5
 8001474:	9303      	str	r3, [sp, #12]
 8001476:	6821      	ldr	r1, [r4, #0]
 8001478:	ab02      	add	r3, sp, #8
 800147a:	1cda      	adds	r2, r3, #3
 800147c:	688b      	ldr	r3, [r1, #8]
 800147e:	0018      	movs	r0, r3
 8001480:	4030      	ands	r0, r6
 8001482:	4233      	tst	r3, r6
 8001484:	d03b      	beq.n	80014fe <SPI_WaitFifoStateUntilTimeout.constprop.0+0xba>
 8001486:	23c0      	movs	r3, #192	; 0xc0
 8001488:	00db      	lsls	r3, r3, #3
 800148a:	429e      	cmp	r6, r3
 800148c:	d104      	bne.n	8001498 <SPI_WaitFifoStateUntilTimeout.constprop.0+0x54>
 800148e:	9b01      	ldr	r3, [sp, #4]
 8001490:	7b1b      	ldrb	r3, [r3, #12]
 8001492:	b2db      	uxtb	r3, r3
 8001494:	7013      	strb	r3, [r2, #0]
 8001496:	7813      	ldrb	r3, [r2, #0]
 8001498:	1c7b      	adds	r3, r7, #1
 800149a:	d0ef      	beq.n	800147c <SPI_WaitFifoStateUntilTimeout.constprop.0+0x38>
 800149c:	f7ff fa98 	bl	80009d0 <HAL_GetTick>
 80014a0:	9b00      	ldr	r3, [sp, #0]
 80014a2:	1ac0      	subs	r0, r0, r3
 80014a4:	42a8      	cmp	r0, r5
 80014a6:	d32c      	bcc.n	8001502 <SPI_WaitFifoStateUntilTimeout.constprop.0+0xbe>
 80014a8:	21e0      	movs	r1, #224	; 0xe0
 80014aa:	6823      	ldr	r3, [r4, #0]
 80014ac:	685a      	ldr	r2, [r3, #4]
 80014ae:	438a      	bics	r2, r1
 80014b0:	605a      	str	r2, [r3, #4]
 80014b2:	2282      	movs	r2, #130	; 0x82
 80014b4:	6861      	ldr	r1, [r4, #4]
 80014b6:	0052      	lsls	r2, r2, #1
 80014b8:	4291      	cmp	r1, r2
 80014ba:	d10c      	bne.n	80014d6 <SPI_WaitFifoStateUntilTimeout.constprop.0+0x92>
 80014bc:	2180      	movs	r1, #128	; 0x80
 80014be:	68a2      	ldr	r2, [r4, #8]
 80014c0:	0209      	lsls	r1, r1, #8
 80014c2:	428a      	cmp	r2, r1
 80014c4:	d003      	beq.n	80014ce <SPI_WaitFifoStateUntilTimeout.constprop.0+0x8a>
 80014c6:	2180      	movs	r1, #128	; 0x80
 80014c8:	00c9      	lsls	r1, r1, #3
 80014ca:	428a      	cmp	r2, r1
 80014cc:	d103      	bne.n	80014d6 <SPI_WaitFifoStateUntilTimeout.constprop.0+0x92>
 80014ce:	2140      	movs	r1, #64	; 0x40
 80014d0:	681a      	ldr	r2, [r3, #0]
 80014d2:	438a      	bics	r2, r1
 80014d4:	601a      	str	r2, [r3, #0]
 80014d6:	2180      	movs	r1, #128	; 0x80
 80014d8:	6aa2      	ldr	r2, [r4, #40]	; 0x28
 80014da:	0189      	lsls	r1, r1, #6
 80014dc:	428a      	cmp	r2, r1
 80014de:	d106      	bne.n	80014ee <SPI_WaitFifoStateUntilTimeout.constprop.0+0xaa>
 80014e0:	6819      	ldr	r1, [r3, #0]
 80014e2:	480d      	ldr	r0, [pc, #52]	; (8001518 <SPI_WaitFifoStateUntilTimeout.constprop.0+0xd4>)
 80014e4:	4001      	ands	r1, r0
 80014e6:	6019      	str	r1, [r3, #0]
 80014e8:	6819      	ldr	r1, [r3, #0]
 80014ea:	430a      	orrs	r2, r1
 80014ec:	601a      	str	r2, [r3, #0]
 80014ee:	0023      	movs	r3, r4
 80014f0:	2201      	movs	r2, #1
 80014f2:	335d      	adds	r3, #93	; 0x5d
 80014f4:	701a      	strb	r2, [r3, #0]
 80014f6:	2300      	movs	r3, #0
 80014f8:	2003      	movs	r0, #3
 80014fa:	345c      	adds	r4, #92	; 0x5c
 80014fc:	7023      	strb	r3, [r4, #0]
 80014fe:	b005      	add	sp, #20
 8001500:	bdf0      	pop	{r4, r5, r6, r7, pc}
 8001502:	9b03      	ldr	r3, [sp, #12]
 8001504:	1e5a      	subs	r2, r3, #1
 8001506:	4193      	sbcs	r3, r2
 8001508:	425b      	negs	r3, r3
 800150a:	401d      	ands	r5, r3
 800150c:	9b03      	ldr	r3, [sp, #12]
 800150e:	3b01      	subs	r3, #1
 8001510:	e7b0      	b.n	8001474 <SPI_WaitFifoStateUntilTimeout.constprop.0+0x30>
 8001512:	46c0      	nop			; (mov r8, r8)
 8001514:	2000000c 	.word	0x2000000c
 8001518:	ffffdfff 	.word	0xffffdfff

0800151c <SPI_WaitFlagStateUntilTimeout.constprop.0>:
 800151c:	b5f0      	push	{r4, r5, r6, r7, lr}
 800151e:	000e      	movs	r6, r1
 8001520:	b085      	sub	sp, #20
 8001522:	0015      	movs	r5, r2
 8001524:	0004      	movs	r4, r0
 8001526:	f7ff fa53 	bl	80009d0 <HAL_GetTick>
 800152a:	19ad      	adds	r5, r5, r6
 800152c:	1a2d      	subs	r5, r5, r0
 800152e:	f7ff fa4f 	bl	80009d0 <HAL_GetTick>
 8001532:	2780      	movs	r7, #128	; 0x80
 8001534:	4b25      	ldr	r3, [pc, #148]	; (80015cc <SPI_WaitFlagStateUntilTimeout.constprop.0+0xb0>)
 8001536:	9001      	str	r0, [sp, #4]
 8001538:	681b      	ldr	r3, [r3, #0]
 800153a:	015b      	lsls	r3, r3, #5
 800153c:	0d1b      	lsrs	r3, r3, #20
 800153e:	436b      	muls	r3, r5
 8001540:	9303      	str	r3, [sp, #12]
 8001542:	6822      	ldr	r2, [r4, #0]
 8001544:	6893      	ldr	r3, [r2, #8]
 8001546:	0018      	movs	r0, r3
 8001548:	4038      	ands	r0, r7
 800154a:	423b      	tst	r3, r7
 800154c:	d032      	beq.n	80015b4 <SPI_WaitFlagStateUntilTimeout.constprop.0+0x98>
 800154e:	1c73      	adds	r3, r6, #1
 8001550:	d0f8      	beq.n	8001544 <SPI_WaitFlagStateUntilTimeout.constprop.0+0x28>
 8001552:	f7ff fa3d 	bl	80009d0 <HAL_GetTick>
 8001556:	9b01      	ldr	r3, [sp, #4]
 8001558:	1ac0      	subs	r0, r0, r3
 800155a:	42a8      	cmp	r0, r5
 800155c:	d32c      	bcc.n	80015b8 <SPI_WaitFlagStateUntilTimeout.constprop.0+0x9c>
 800155e:	21e0      	movs	r1, #224	; 0xe0
 8001560:	6823      	ldr	r3, [r4, #0]
 8001562:	685a      	ldr	r2, [r3, #4]
 8001564:	438a      	bics	r2, r1
 8001566:	605a      	str	r2, [r3, #4]
 8001568:	2282      	movs	r2, #130	; 0x82
 800156a:	6861      	ldr	r1, [r4, #4]
 800156c:	0052      	lsls	r2, r2, #1
 800156e:	4291      	cmp	r1, r2
 8001570:	d10c      	bne.n	800158c <SPI_WaitFlagStateUntilTimeout.constprop.0+0x70>
 8001572:	2180      	movs	r1, #128	; 0x80
 8001574:	68a2      	ldr	r2, [r4, #8]
 8001576:	0209      	lsls	r1, r1, #8
 8001578:	428a      	cmp	r2, r1
 800157a:	d003      	beq.n	8001584 <SPI_WaitFlagStateUntilTimeout.constprop.0+0x68>
 800157c:	2180      	movs	r1, #128	; 0x80
 800157e:	00c9      	lsls	r1, r1, #3
 8001580:	428a      	cmp	r2, r1
 8001582:	d103      	bne.n	800158c <SPI_WaitFlagStateUntilTimeout.constprop.0+0x70>
 8001584:	2140      	movs	r1, #64	; 0x40
 8001586:	681a      	ldr	r2, [r3, #0]
 8001588:	438a      	bics	r2, r1
 800158a:	601a      	str	r2, [r3, #0]
 800158c:	2180      	movs	r1, #128	; 0x80
 800158e:	6aa2      	ldr	r2, [r4, #40]	; 0x28
 8001590:	0189      	lsls	r1, r1, #6
 8001592:	428a      	cmp	r2, r1
 8001594:	d106      	bne.n	80015a4 <SPI_WaitFlagStateUntilTimeout.constprop.0+0x88>
 8001596:	6819      	ldr	r1, [r3, #0]
 8001598:	480d      	ldr	r0, [pc, #52]	; (80015d0 <SPI_WaitFlagStateUntilTimeout.constprop.0+0xb4>)
 800159a:	4001      	ands	r1, r0
 800159c:	6019      	str	r1, [r3, #0]
 800159e:	6819      	ldr	r1, [r3, #0]
 80015a0:	430a      	orrs	r2, r1
 80015a2:	601a      	str	r2, [r3, #0]
 80015a4:	0023      	movs	r3, r4
 80015a6:	2201      	movs	r2, #1
 80015a8:	335d      	adds	r3, #93	; 0x5d
 80015aa:	701a      	strb	r2, [r3, #0]
 80015ac:	2300      	movs	r3, #0
 80015ae:	2003      	movs	r0, #3
 80015b0:	345c      	adds	r4, #92	; 0x5c
 80015b2:	7023      	strb	r3, [r4, #0]
 80015b4:	b005      	add	sp, #20
 80015b6:	bdf0      	pop	{r4, r5, r6, r7, pc}
 80015b8:	9b03      	ldr	r3, [sp, #12]
 80015ba:	1e5a      	subs	r2, r3, #1
 80015bc:	4193      	sbcs	r3, r2
 80015be:	425b      	negs	r3, r3
 80015c0:	401d      	ands	r5, r3
 80015c2:	9b03      	ldr	r3, [sp, #12]
 80015c4:	3b01      	subs	r3, #1
 80015c6:	9303      	str	r3, [sp, #12]
 80015c8:	e7bb      	b.n	8001542 <SPI_WaitFlagStateUntilTimeout.constprop.0+0x26>
 80015ca:	46c0      	nop			; (mov r8, r8)
 80015cc:	2000000c 	.word	0x2000000c
 80015d0:	ffffdfff 	.word	0xffffdfff

080015d4 <SPI_EndRxTxTransaction>:
 80015d4:	b570      	push	{r4, r5, r6, lr}
 80015d6:	0013      	movs	r3, r2
 80015d8:	000d      	movs	r5, r1
 80015da:	0016      	movs	r6, r2
 80015dc:	000a      	movs	r2, r1
 80015de:	21c0      	movs	r1, #192	; 0xc0
 80015e0:	0149      	lsls	r1, r1, #5
 80015e2:	0004      	movs	r4, r0
 80015e4:	f7ff ff2e 	bl	8001444 <SPI_WaitFifoStateUntilTimeout.constprop.0>
 80015e8:	2800      	cmp	r0, #0
 80015ea:	d005      	beq.n	80015f8 <SPI_EndRxTxTransaction+0x24>
 80015ec:	2320      	movs	r3, #32
 80015ee:	6e22      	ldr	r2, [r4, #96]	; 0x60
 80015f0:	2003      	movs	r0, #3
 80015f2:	4313      	orrs	r3, r2
 80015f4:	6623      	str	r3, [r4, #96]	; 0x60
 80015f6:	e00f      	b.n	8001618 <SPI_EndRxTxTransaction+0x44>
 80015f8:	0032      	movs	r2, r6
 80015fa:	0029      	movs	r1, r5
 80015fc:	0020      	movs	r0, r4
 80015fe:	f7ff ff8d 	bl	800151c <SPI_WaitFlagStateUntilTimeout.constprop.0>
 8001602:	2800      	cmp	r0, #0
 8001604:	d1f2      	bne.n	80015ec <SPI_EndRxTxTransaction+0x18>
 8001606:	21c0      	movs	r1, #192	; 0xc0
 8001608:	0033      	movs	r3, r6
 800160a:	002a      	movs	r2, r5
 800160c:	0020      	movs	r0, r4
 800160e:	00c9      	lsls	r1, r1, #3
 8001610:	f7ff ff18 	bl	8001444 <SPI_WaitFifoStateUntilTimeout.constprop.0>
 8001614:	2800      	cmp	r0, #0
 8001616:	d1e9      	bne.n	80015ec <SPI_EndRxTxTransaction+0x18>
 8001618:	bd70      	pop	{r4, r5, r6, pc}
	...

0800161c <HAL_SPI_Init>:
 800161c:	b5f8      	push	{r3, r4, r5, r6, r7, lr}
 800161e:	0004      	movs	r4, r0
 8001620:	2001      	movs	r0, #1
 8001622:	2c00      	cmp	r4, #0
 8001624:	d067      	beq.n	80016f6 <HAL_SPI_Init+0xda>
 8001626:	6a63      	ldr	r3, [r4, #36]	; 0x24
 8001628:	2b00      	cmp	r3, #0
 800162a:	d165      	bne.n	80016f8 <HAL_SPI_Init+0xdc>
 800162c:	2282      	movs	r2, #130	; 0x82
 800162e:	6861      	ldr	r1, [r4, #4]
 8001630:	0052      	lsls	r2, r2, #1
 8001632:	4291      	cmp	r1, r2
 8001634:	d000      	beq.n	8001638 <HAL_SPI_Init+0x1c>
 8001636:	61e3      	str	r3, [r4, #28]
 8001638:	2300      	movs	r3, #0
 800163a:	0025      	movs	r5, r4
 800163c:	62a3      	str	r3, [r4, #40]	; 0x28
 800163e:	355d      	adds	r5, #93	; 0x5d
 8001640:	782b      	ldrb	r3, [r5, #0]
 8001642:	b2da      	uxtb	r2, r3
 8001644:	2b00      	cmp	r3, #0
 8001646:	d105      	bne.n	8001654 <HAL_SPI_Init+0x38>
 8001648:	0023      	movs	r3, r4
 800164a:	335c      	adds	r3, #92	; 0x5c
 800164c:	0020      	movs	r0, r4
 800164e:	701a      	strb	r2, [r3, #0]
 8001650:	f7ff f890 	bl	8000774 <HAL_SPI_MspInit>
 8001654:	2302      	movs	r3, #2
 8001656:	2140      	movs	r1, #64	; 0x40
 8001658:	702b      	strb	r3, [r5, #0]
 800165a:	6822      	ldr	r2, [r4, #0]
 800165c:	68e5      	ldr	r5, [r4, #12]
 800165e:	6813      	ldr	r3, [r2, #0]
 8001660:	438b      	bics	r3, r1
 8001662:	21e0      	movs	r1, #224	; 0xe0
 8001664:	6013      	str	r3, [r2, #0]
 8001666:	00c9      	lsls	r1, r1, #3
 8001668:	2300      	movs	r3, #0
 800166a:	428d      	cmp	r5, r1
 800166c:	d848      	bhi.n	8001700 <HAL_SPI_Init+0xe4>
 800166e:	2080      	movs	r0, #128	; 0x80
 8001670:	0140      	lsls	r0, r0, #5
 8001672:	428d      	cmp	r5, r1
 8001674:	d000      	beq.n	8001678 <HAL_SPI_Init+0x5c>
 8001676:	62a3      	str	r3, [r4, #40]	; 0x28
 8001678:	2382      	movs	r3, #130	; 0x82
 800167a:	6866      	ldr	r6, [r4, #4]
 800167c:	005b      	lsls	r3, r3, #1
 800167e:	4033      	ands	r3, r6
 8001680:	2684      	movs	r6, #132	; 0x84
 8001682:	68a7      	ldr	r7, [r4, #8]
 8001684:	0236      	lsls	r6, r6, #8
 8001686:	403e      	ands	r6, r7
 8001688:	4333      	orrs	r3, r6
 800168a:	2602      	movs	r6, #2
 800168c:	6927      	ldr	r7, [r4, #16]
 800168e:	69a1      	ldr	r1, [r4, #24]
 8001690:	403e      	ands	r6, r7
 8001692:	4333      	orrs	r3, r6
 8001694:	2601      	movs	r6, #1
 8001696:	6967      	ldr	r7, [r4, #20]
 8001698:	46b4      	mov	ip, r6
 800169a:	4037      	ands	r7, r6
 800169c:	433b      	orrs	r3, r7
 800169e:	2780      	movs	r7, #128	; 0x80
 80016a0:	00bf      	lsls	r7, r7, #2
 80016a2:	400f      	ands	r7, r1
 80016a4:	433b      	orrs	r3, r7
 80016a6:	2738      	movs	r7, #56	; 0x38
 80016a8:	69e6      	ldr	r6, [r4, #28]
 80016aa:	0c09      	lsrs	r1, r1, #16
 80016ac:	4037      	ands	r7, r6
 80016ae:	433b      	orrs	r3, r7
 80016b0:	2780      	movs	r7, #128	; 0x80
 80016b2:	6a26      	ldr	r6, [r4, #32]
 80016b4:	4037      	ands	r7, r6
 80016b6:	433b      	orrs	r3, r7
 80016b8:	2780      	movs	r7, #128	; 0x80
 80016ba:	6aa6      	ldr	r6, [r4, #40]	; 0x28
 80016bc:	01bf      	lsls	r7, r7, #6
 80016be:	4037      	ands	r7, r6
 80016c0:	433b      	orrs	r3, r7
 80016c2:	6013      	str	r3, [r2, #0]
 80016c4:	2310      	movs	r3, #16
 80016c6:	2708      	movs	r7, #8
 80016c8:	6a66      	ldr	r6, [r4, #36]	; 0x24
 80016ca:	4033      	ands	r3, r6
 80016cc:	6b66      	ldr	r6, [r4, #52]	; 0x34
 80016ce:	4037      	ands	r7, r6
 80016d0:	433b      	orrs	r3, r7
 80016d2:	27f0      	movs	r7, #240	; 0xf0
 80016d4:	013f      	lsls	r7, r7, #4
 80016d6:	403d      	ands	r5, r7
 80016d8:	431d      	orrs	r5, r3
 80016da:	2304      	movs	r3, #4
 80016dc:	4019      	ands	r1, r3
 80016de:	4329      	orrs	r1, r5
 80016e0:	4308      	orrs	r0, r1
 80016e2:	6050      	str	r0, [r2, #4]
 80016e4:	69d3      	ldr	r3, [r2, #28]
 80016e6:	4908      	ldr	r1, [pc, #32]	; (8001708 <HAL_SPI_Init+0xec>)
 80016e8:	2000      	movs	r0, #0
 80016ea:	400b      	ands	r3, r1
 80016ec:	61d3      	str	r3, [r2, #28]
 80016ee:	4663      	mov	r3, ip
 80016f0:	6620      	str	r0, [r4, #96]	; 0x60
 80016f2:	345d      	adds	r4, #93	; 0x5d
 80016f4:	7023      	strb	r3, [r4, #0]
 80016f6:	bdf8      	pop	{r3, r4, r5, r6, r7, pc}
 80016f8:	2300      	movs	r3, #0
 80016fa:	6123      	str	r3, [r4, #16]
 80016fc:	6163      	str	r3, [r4, #20]
 80016fe:	e79b      	b.n	8001638 <HAL_SPI_Init+0x1c>
 8001700:	21f0      	movs	r1, #240	; 0xf0
 8001702:	0018      	movs	r0, r3
 8001704:	0109      	lsls	r1, r1, #4
 8001706:	e7b4      	b.n	8001672 <HAL_SPI_Init+0x56>
 8001708:	fffff7ff 	.word	0xfffff7ff

0800170c <HAL_SPI_Transmit_DMA>:
 800170c:	b5f8      	push	{r3, r4, r5, r6, r7, lr}
 800170e:	0006      	movs	r6, r0
 8001710:	365c      	adds	r6, #92	; 0x5c
 8001712:	7833      	ldrb	r3, [r6, #0]
 8001714:	0004      	movs	r4, r0
 8001716:	2502      	movs	r5, #2
 8001718:	2b01      	cmp	r3, #1
 800171a:	d05b      	beq.n	80017d4 <HAL_SPI_Transmit_DMA+0xc8>
 800171c:	2301      	movs	r3, #1
 800171e:	7033      	strb	r3, [r6, #0]
 8001720:	0003      	movs	r3, r0
 8001722:	335d      	adds	r3, #93	; 0x5d
 8001724:	7818      	ldrb	r0, [r3, #0]
 8001726:	b2c5      	uxtb	r5, r0
 8001728:	2801      	cmp	r0, #1
 800172a:	d000      	beq.n	800172e <HAL_SPI_Transmit_DMA+0x22>
 800172c:	e06f      	b.n	800180e <HAL_SPI_Transmit_DMA+0x102>
 800172e:	2900      	cmp	r1, #0
 8001730:	d04e      	beq.n	80017d0 <HAL_SPI_Transmit_DMA+0xc4>
 8001732:	2a00      	cmp	r2, #0
 8001734:	d04c      	beq.n	80017d0 <HAL_SPI_Transmit_DMA+0xc4>
 8001736:	3002      	adds	r0, #2
 8001738:	7018      	strb	r0, [r3, #0]
 800173a:	2300      	movs	r3, #0
 800173c:	87a2      	strh	r2, [r4, #60]	; 0x3c
 800173e:	6623      	str	r3, [r4, #96]	; 0x60
 8001740:	87e2      	strh	r2, [r4, #62]	; 0x3e
 8001742:	1da2      	adds	r2, r4, #6
 8001744:	6423      	str	r3, [r4, #64]	; 0x40
 8001746:	6523      	str	r3, [r4, #80]	; 0x50
 8001748:	64e3      	str	r3, [r4, #76]	; 0x4c
 800174a:	63a1      	str	r1, [r4, #56]	; 0x38
 800174c:	3202      	adds	r2, #2
 800174e:	8793      	strh	r3, [r2, #60]	; 0x3c
 8001750:	87d3      	strh	r3, [r2, #62]	; 0x3e
 8001752:	2380      	movs	r3, #128	; 0x80
 8001754:	68a0      	ldr	r0, [r4, #8]
 8001756:	6822      	ldr	r2, [r4, #0]
 8001758:	021b      	lsls	r3, r3, #8
 800175a:	4298      	cmp	r0, r3
 800175c:	d108      	bne.n	8001770 <HAL_SPI_Transmit_DMA+0x64>
 800175e:	2040      	movs	r0, #64	; 0x40
 8001760:	6813      	ldr	r3, [r2, #0]
 8001762:	4383      	bics	r3, r0
 8001764:	6013      	str	r3, [r2, #0]
 8001766:	2380      	movs	r3, #128	; 0x80
 8001768:	6810      	ldr	r0, [r2, #0]
 800176a:	01db      	lsls	r3, r3, #7
 800176c:	4303      	orrs	r3, r0
 800176e:	6013      	str	r3, [r2, #0]
 8001770:	6d60      	ldr	r0, [r4, #84]	; 0x54
 8001772:	4b28      	ldr	r3, [pc, #160]	; (8001814 <HAL_SPI_Transmit_DMA+0x108>)
 8001774:	6857      	ldr	r7, [r2, #4]
 8001776:	62c3      	str	r3, [r0, #44]	; 0x2c
 8001778:	4b27      	ldr	r3, [pc, #156]	; (8001818 <HAL_SPI_Transmit_DMA+0x10c>)
 800177a:	6283      	str	r3, [r0, #40]	; 0x28
 800177c:	4b27      	ldr	r3, [pc, #156]	; (800181c <HAL_SPI_Transmit_DMA+0x110>)
 800177e:	6303      	str	r3, [r0, #48]	; 0x30
 8001780:	2300      	movs	r3, #0
 8001782:	6343      	str	r3, [r0, #52]	; 0x34
 8001784:	4b26      	ldr	r3, [pc, #152]	; (8001820 <HAL_SPI_Transmit_DMA+0x114>)
 8001786:	401f      	ands	r7, r3
 8001788:	469c      	mov	ip, r3
 800178a:	23e0      	movs	r3, #224	; 0xe0
 800178c:	6057      	str	r7, [r2, #4]
 800178e:	68e7      	ldr	r7, [r4, #12]
 8001790:	00db      	lsls	r3, r3, #3
 8001792:	429f      	cmp	r7, r3
 8001794:	d80e      	bhi.n	80017b4 <HAL_SPI_Transmit_DMA+0xa8>
 8001796:	2380      	movs	r3, #128	; 0x80
 8001798:	6947      	ldr	r7, [r0, #20]
 800179a:	00db      	lsls	r3, r3, #3
 800179c:	429f      	cmp	r7, r3
 800179e:	d109      	bne.n	80017b4 <HAL_SPI_Transmit_DMA+0xa8>
 80017a0:	8fe3      	ldrh	r3, [r4, #62]	; 0x3e
 80017a2:	07db      	lsls	r3, r3, #31
 80017a4:	d418      	bmi.n	80017d8 <HAL_SPI_Transmit_DMA+0xcc>
 80017a6:	4667      	mov	r7, ip
 80017a8:	6853      	ldr	r3, [r2, #4]
 80017aa:	403b      	ands	r3, r7
 80017ac:	6053      	str	r3, [r2, #4]
 80017ae:	8fe3      	ldrh	r3, [r4, #62]	; 0x3e
 80017b0:	085b      	lsrs	r3, r3, #1
 80017b2:	87e3      	strh	r3, [r4, #62]	; 0x3e
 80017b4:	8fe3      	ldrh	r3, [r4, #62]	; 0x3e
 80017b6:	320c      	adds	r2, #12
 80017b8:	b29b      	uxth	r3, r3
 80017ba:	f7ff f991 	bl	8000ae0 <HAL_DMA_Start_IT>
 80017be:	2800      	cmp	r0, #0
 80017c0:	d013      	beq.n	80017ea <HAL_SPI_Transmit_DMA+0xde>
 80017c2:	2310      	movs	r3, #16
 80017c4:	6e22      	ldr	r2, [r4, #96]	; 0x60
 80017c6:	4313      	orrs	r3, r2
 80017c8:	6623      	str	r3, [r4, #96]	; 0x60
 80017ca:	2301      	movs	r3, #1
 80017cc:	345d      	adds	r4, #93	; 0x5d
 80017ce:	7023      	strb	r3, [r4, #0]
 80017d0:	2300      	movs	r3, #0
 80017d2:	7033      	strb	r3, [r6, #0]
 80017d4:	0028      	movs	r0, r5
 80017d6:	bdf8      	pop	{r3, r4, r5, r6, r7, pc}
 80017d8:	2380      	movs	r3, #128	; 0x80
 80017da:	6857      	ldr	r7, [r2, #4]
 80017dc:	01db      	lsls	r3, r3, #7
 80017de:	433b      	orrs	r3, r7
 80017e0:	6053      	str	r3, [r2, #4]
 80017e2:	8fe3      	ldrh	r3, [r4, #62]	; 0x3e
 80017e4:	085b      	lsrs	r3, r3, #1
 80017e6:	3301      	adds	r3, #1
 80017e8:	e7e3      	b.n	80017b2 <HAL_SPI_Transmit_DMA+0xa6>
 80017ea:	2240      	movs	r2, #64	; 0x40
 80017ec:	6823      	ldr	r3, [r4, #0]
 80017ee:	6819      	ldr	r1, [r3, #0]
 80017f0:	4211      	tst	r1, r2
 80017f2:	d102      	bne.n	80017fa <HAL_SPI_Transmit_DMA+0xee>
 80017f4:	6819      	ldr	r1, [r3, #0]
 80017f6:	430a      	orrs	r2, r1
 80017f8:	601a      	str	r2, [r3, #0]
 80017fa:	2220      	movs	r2, #32
 80017fc:	6859      	ldr	r1, [r3, #4]
 80017fe:	2500      	movs	r5, #0
 8001800:	430a      	orrs	r2, r1
 8001802:	605a      	str	r2, [r3, #4]
 8001804:	2202      	movs	r2, #2
 8001806:	6859      	ldr	r1, [r3, #4]
 8001808:	430a      	orrs	r2, r1
 800180a:	605a      	str	r2, [r3, #4]
 800180c:	e7e0      	b.n	80017d0 <HAL_SPI_Transmit_DMA+0xc4>
 800180e:	2502      	movs	r5, #2
 8001810:	e7de      	b.n	80017d0 <HAL_SPI_Transmit_DMA+0xc4>
 8001812:	46c0      	nop			; (mov r8, r8)
 8001814:	08001827 	.word	0x08001827
 8001818:	08001857 	.word	0x08001857
 800181c:	08001833 	.word	0x08001833
 8001820:	ffffbfff 	.word	0xffffbfff

08001824 <HAL_SPI_TxHalfCpltCallback>:
 8001824:	4770      	bx	lr

08001826 <SPI_DMAHalfTransmitCplt>:
 8001826:	b510      	push	{r4, lr}
 8001828:	6a40      	ldr	r0, [r0, #36]	; 0x24
 800182a:	f7ff fffb 	bl	8001824 <HAL_SPI_TxHalfCpltCallback>
 800182e:	bd10      	pop	{r4, pc}

08001830 <HAL_SPI_ErrorCallback>:
 8001830:	4770      	bx	lr

08001832 <SPI_DMAError>:
 8001832:	2103      	movs	r1, #3
 8001834:	6a40      	ldr	r0, [r0, #36]	; 0x24
 8001836:	b510      	push	{r4, lr}
 8001838:	6802      	ldr	r2, [r0, #0]
 800183a:	6853      	ldr	r3, [r2, #4]
 800183c:	438b      	bics	r3, r1
 800183e:	6053      	str	r3, [r2, #4]
 8001840:	2310      	movs	r3, #16
 8001842:	6e02      	ldr	r2, [r0, #96]	; 0x60
 8001844:	4313      	orrs	r3, r2
 8001846:	6603      	str	r3, [r0, #96]	; 0x60
 8001848:	0003      	movs	r3, r0
 800184a:	2201      	movs	r2, #1
 800184c:	335d      	adds	r3, #93	; 0x5d
 800184e:	701a      	strb	r2, [r3, #0]
 8001850:	f7ff ffee 	bl	8001830 <HAL_SPI_ErrorCallback>
 8001854:	bd10      	pop	{r4, pc}

08001856 <SPI_DMATransmitCplt>:
 8001856:	b537      	push	{r0, r1, r2, r4, r5, lr}
 8001858:	0005      	movs	r5, r0
 800185a:	6a44      	ldr	r4, [r0, #36]	; 0x24
 800185c:	f7ff f8b8 	bl	80009d0 <HAL_GetTick>
 8001860:	682b      	ldr	r3, [r5, #0]
 8001862:	2520      	movs	r5, #32
 8001864:	681b      	ldr	r3, [r3, #0]
 8001866:	0002      	movs	r2, r0
 8001868:	422b      	tst	r3, r5
 800186a:	d127      	bne.n	80018bc <SPI_DMATransmitCplt+0x66>
 800186c:	2002      	movs	r0, #2
 800186e:	6823      	ldr	r3, [r4, #0]
 8001870:	6859      	ldr	r1, [r3, #4]
 8001872:	43a9      	bics	r1, r5
 8001874:	6059      	str	r1, [r3, #4]
 8001876:	6859      	ldr	r1, [r3, #4]
 8001878:	4381      	bics	r1, r0
 800187a:	6059      	str	r1, [r3, #4]
 800187c:	0020      	movs	r0, r4
 800187e:	2164      	movs	r1, #100	; 0x64
 8001880:	f7ff fea8 	bl	80015d4 <SPI_EndRxTxTransaction>
 8001884:	2800      	cmp	r0, #0
 8001886:	d002      	beq.n	800188e <SPI_DMATransmitCplt+0x38>
 8001888:	6e23      	ldr	r3, [r4, #96]	; 0x60
 800188a:	431d      	orrs	r5, r3
 800188c:	6625      	str	r5, [r4, #96]	; 0x60
 800188e:	68a3      	ldr	r3, [r4, #8]
 8001890:	2b00      	cmp	r3, #0
 8001892:	d106      	bne.n	80018a2 <SPI_DMATransmitCplt+0x4c>
 8001894:	9301      	str	r3, [sp, #4]
 8001896:	6823      	ldr	r3, [r4, #0]
 8001898:	68da      	ldr	r2, [r3, #12]
 800189a:	9201      	str	r2, [sp, #4]
 800189c:	689b      	ldr	r3, [r3, #8]
 800189e:	9301      	str	r3, [sp, #4]
 80018a0:	9b01      	ldr	r3, [sp, #4]
 80018a2:	2300      	movs	r3, #0
 80018a4:	87e3      	strh	r3, [r4, #62]	; 0x3e
 80018a6:	0023      	movs	r3, r4
 80018a8:	2201      	movs	r2, #1
 80018aa:	335d      	adds	r3, #93	; 0x5d
 80018ac:	701a      	strb	r2, [r3, #0]
 80018ae:	6e23      	ldr	r3, [r4, #96]	; 0x60
 80018b0:	2b00      	cmp	r3, #0
 80018b2:	d003      	beq.n	80018bc <SPI_DMATransmitCplt+0x66>
 80018b4:	0020      	movs	r0, r4
 80018b6:	f7ff ffbb 	bl	8001830 <HAL_SPI_ErrorCallback>
 80018ba:	bd37      	pop	{r0, r1, r2, r4, r5, pc}
 80018bc:	0020      	movs	r0, r4
 80018be:	f7fe ff2d 	bl	800071c <HAL_SPI_TxCpltCallback>
 80018c2:	e7fa      	b.n	80018ba <SPI_DMATransmitCplt+0x64>

080018c4 <HAL_SPI_IRQHandler>:
 80018c4:	6803      	ldr	r3, [r0, #0]
 80018c6:	b5f0      	push	{r4, r5, r6, r7, lr}
 80018c8:	0004      	movs	r4, r0
 80018ca:	6858      	ldr	r0, [r3, #4]
 80018cc:	689a      	ldr	r2, [r3, #8]
 80018ce:	2501      	movs	r5, #1
 80018d0:	0991      	lsrs	r1, r2, #6
 80018d2:	000f      	movs	r7, r1
 80018d4:	b085      	sub	sp, #20
 80018d6:	402f      	ands	r7, r5
 80018d8:	4229      	tst	r1, r5
 80018da:	d109      	bne.n	80018f0 <HAL_SPI_IRQHandler+0x2c>
 80018dc:	422a      	tst	r2, r5
 80018de:	d007      	beq.n	80018f0 <HAL_SPI_IRQHandler+0x2c>
 80018e0:	0986      	lsrs	r6, r0, #6
 80018e2:	422e      	tst	r6, r5
 80018e4:	d004      	beq.n	80018f0 <HAL_SPI_IRQHandler+0x2c>
 80018e6:	6ce3      	ldr	r3, [r4, #76]	; 0x4c
 80018e8:	0020      	movs	r0, r4
 80018ea:	4798      	blx	r3
 80018ec:	b005      	add	sp, #20
 80018ee:	bdf0      	pop	{r4, r5, r6, r7, pc}
 80018f0:	2501      	movs	r5, #1
 80018f2:	0796      	lsls	r6, r2, #30
 80018f4:	d504      	bpl.n	8001900 <HAL_SPI_IRQHandler+0x3c>
 80018f6:	09c6      	lsrs	r6, r0, #7
 80018f8:	422e      	tst	r6, r5
 80018fa:	d001      	beq.n	8001900 <HAL_SPI_IRQHandler+0x3c>
 80018fc:	6d23      	ldr	r3, [r4, #80]	; 0x50
 80018fe:	e7f3      	b.n	80018e8 <HAL_SPI_IRQHandler+0x24>
 8001900:	2501      	movs	r5, #1
 8001902:	0956      	lsrs	r6, r2, #5
 8001904:	4331      	orrs	r1, r6
 8001906:	0a12      	lsrs	r2, r2, #8
 8001908:	402a      	ands	r2, r5
 800190a:	4029      	ands	r1, r5
 800190c:	4311      	orrs	r1, r2
 800190e:	d0ed      	beq.n	80018ec <HAL_SPI_IRQHandler+0x28>
 8001910:	0941      	lsrs	r1, r0, #5
 8001912:	4229      	tst	r1, r5
 8001914:	d0ea      	beq.n	80018ec <HAL_SPI_IRQHandler+0x28>
 8001916:	2f00      	cmp	r7, #0
 8001918:	d00f      	beq.n	800193a <HAL_SPI_IRQHandler+0x76>
 800191a:	0021      	movs	r1, r4
 800191c:	315d      	adds	r1, #93	; 0x5d
 800191e:	7809      	ldrb	r1, [r1, #0]
 8001920:	2903      	cmp	r1, #3
 8001922:	d050      	beq.n	80019c6 <HAL_SPI_IRQHandler+0x102>
 8001924:	2104      	movs	r1, #4
 8001926:	6e25      	ldr	r5, [r4, #96]	; 0x60
 8001928:	4329      	orrs	r1, r5
 800192a:	6621      	str	r1, [r4, #96]	; 0x60
 800192c:	2100      	movs	r1, #0
 800192e:	9100      	str	r1, [sp, #0]
 8001930:	68d9      	ldr	r1, [r3, #12]
 8001932:	9100      	str	r1, [sp, #0]
 8001934:	6899      	ldr	r1, [r3, #8]
 8001936:	9100      	str	r1, [sp, #0]
 8001938:	9900      	ldr	r1, [sp, #0]
 800193a:	2101      	movs	r1, #1
 800193c:	420e      	tst	r6, r1
 800193e:	d00b      	beq.n	8001958 <HAL_SPI_IRQHandler+0x94>
 8001940:	6e25      	ldr	r5, [r4, #96]	; 0x60
 8001942:	4329      	orrs	r1, r5
 8001944:	6621      	str	r1, [r4, #96]	; 0x60
 8001946:	2100      	movs	r1, #0
 8001948:	2540      	movs	r5, #64	; 0x40
 800194a:	9102      	str	r1, [sp, #8]
 800194c:	6899      	ldr	r1, [r3, #8]
 800194e:	9102      	str	r1, [sp, #8]
 8001950:	6819      	ldr	r1, [r3, #0]
 8001952:	43a9      	bics	r1, r5
 8001954:	6019      	str	r1, [r3, #0]
 8001956:	9902      	ldr	r1, [sp, #8]
 8001958:	2a00      	cmp	r2, #0
 800195a:	d008      	beq.n	800196e <HAL_SPI_IRQHandler+0xaa>
 800195c:	2208      	movs	r2, #8
 800195e:	6e21      	ldr	r1, [r4, #96]	; 0x60
 8001960:	430a      	orrs	r2, r1
 8001962:	6622      	str	r2, [r4, #96]	; 0x60
 8001964:	2200      	movs	r2, #0
 8001966:	9203      	str	r2, [sp, #12]
 8001968:	689a      	ldr	r2, [r3, #8]
 800196a:	9203      	str	r2, [sp, #12]
 800196c:	9a03      	ldr	r2, [sp, #12]
 800196e:	6e22      	ldr	r2, [r4, #96]	; 0x60
 8001970:	2a00      	cmp	r2, #0
 8001972:	d0bb      	beq.n	80018ec <HAL_SPI_IRQHandler+0x28>
 8001974:	21e0      	movs	r1, #224	; 0xe0
 8001976:	685a      	ldr	r2, [r3, #4]
 8001978:	438a      	bics	r2, r1
 800197a:	605a      	str	r2, [r3, #4]
 800197c:	0022      	movs	r2, r4
 800197e:	39df      	subs	r1, #223	; 0xdf
 8001980:	325d      	adds	r2, #93	; 0x5d
 8001982:	7011      	strb	r1, [r2, #0]
 8001984:	3102      	adds	r1, #2
 8001986:	4208      	tst	r0, r1
 8001988:	d025      	beq.n	80019d6 <HAL_SPI_IRQHandler+0x112>
 800198a:	685a      	ldr	r2, [r3, #4]
 800198c:	6da0      	ldr	r0, [r4, #88]	; 0x58
 800198e:	438a      	bics	r2, r1
 8001990:	605a      	str	r2, [r3, #4]
 8001992:	2800      	cmp	r0, #0
 8001994:	d009      	beq.n	80019aa <HAL_SPI_IRQHandler+0xe6>
 8001996:	4b12      	ldr	r3, [pc, #72]	; (80019e0 <HAL_SPI_IRQHandler+0x11c>)
 8001998:	6343      	str	r3, [r0, #52]	; 0x34
 800199a:	f7ff f8df 	bl	8000b5c <HAL_DMA_Abort_IT>
 800199e:	2800      	cmp	r0, #0
 80019a0:	d003      	beq.n	80019aa <HAL_SPI_IRQHandler+0xe6>
 80019a2:	2340      	movs	r3, #64	; 0x40
 80019a4:	6e22      	ldr	r2, [r4, #96]	; 0x60
 80019a6:	4313      	orrs	r3, r2
 80019a8:	6623      	str	r3, [r4, #96]	; 0x60
 80019aa:	6d60      	ldr	r0, [r4, #84]	; 0x54
 80019ac:	2800      	cmp	r0, #0
 80019ae:	d09d      	beq.n	80018ec <HAL_SPI_IRQHandler+0x28>
 80019b0:	4b0b      	ldr	r3, [pc, #44]	; (80019e0 <HAL_SPI_IRQHandler+0x11c>)
 80019b2:	6343      	str	r3, [r0, #52]	; 0x34
 80019b4:	f7ff f8d2 	bl	8000b5c <HAL_DMA_Abort_IT>
 80019b8:	2800      	cmp	r0, #0
 80019ba:	d097      	beq.n	80018ec <HAL_SPI_IRQHandler+0x28>
 80019bc:	2340      	movs	r3, #64	; 0x40
 80019be:	6e22      	ldr	r2, [r4, #96]	; 0x60
 80019c0:	4313      	orrs	r3, r2
 80019c2:	6623      	str	r3, [r4, #96]	; 0x60
 80019c4:	e792      	b.n	80018ec <HAL_SPI_IRQHandler+0x28>
 80019c6:	2200      	movs	r2, #0
 80019c8:	9201      	str	r2, [sp, #4]
 80019ca:	68da      	ldr	r2, [r3, #12]
 80019cc:	9201      	str	r2, [sp, #4]
 80019ce:	689b      	ldr	r3, [r3, #8]
 80019d0:	9301      	str	r3, [sp, #4]
 80019d2:	9b01      	ldr	r3, [sp, #4]
 80019d4:	e78a      	b.n	80018ec <HAL_SPI_IRQHandler+0x28>
 80019d6:	0020      	movs	r0, r4
 80019d8:	f7ff ff2a 	bl	8001830 <HAL_SPI_ErrorCallback>
 80019dc:	e786      	b.n	80018ec <HAL_SPI_IRQHandler+0x28>
 80019de:	46c0      	nop			; (mov r8, r8)
 80019e0:	080019e5 	.word	0x080019e5

080019e4 <SPI_DMAAbortOnError>:
 80019e4:	6a40      	ldr	r0, [r0, #36]	; 0x24
 80019e6:	2300      	movs	r3, #0
 80019e8:	0002      	movs	r2, r0
 80019ea:	b510      	push	{r4, lr}
 80019ec:	3208      	adds	r2, #8
 80019ee:	87d3      	strh	r3, [r2, #62]	; 0x3e
 80019f0:	87c3      	strh	r3, [r0, #62]	; 0x3e
 80019f2:	f7ff ff1d 	bl	8001830 <HAL_SPI_ErrorCallback>
 80019f6:	bd10      	pop	{r4, pc}

080019f8 <HAL_TIM_Base_Start_IT>:
 80019f8:	0002      	movs	r2, r0
 80019fa:	0003      	movs	r3, r0
 80019fc:	2001      	movs	r0, #1
 80019fe:	323d      	adds	r2, #61	; 0x3d
 8001a00:	7811      	ldrb	r1, [r2, #0]
 8001a02:	4281      	cmp	r1, r0
 8001a04:	d119      	bne.n	8001a3a <HAL_TIM_Base_Start_IT+0x42>
 8001a06:	2102      	movs	r1, #2
 8001a08:	7011      	strb	r1, [r2, #0]
 8001a0a:	681b      	ldr	r3, [r3, #0]
 8001a0c:	68da      	ldr	r2, [r3, #12]
 8001a0e:	4302      	orrs	r2, r0
 8001a10:	60da      	str	r2, [r3, #12]
 8001a12:	4a0d      	ldr	r2, [pc, #52]	; (8001a48 <HAL_TIM_Base_Start_IT+0x50>)
 8001a14:	4293      	cmp	r3, r2
 8001a16:	d006      	beq.n	8001a26 <HAL_TIM_Base_Start_IT+0x2e>
 8001a18:	2280      	movs	r2, #128	; 0x80
 8001a1a:	05d2      	lsls	r2, r2, #23
 8001a1c:	4293      	cmp	r3, r2
 8001a1e:	d002      	beq.n	8001a26 <HAL_TIM_Base_Start_IT+0x2e>
 8001a20:	4a0a      	ldr	r2, [pc, #40]	; (8001a4c <HAL_TIM_Base_Start_IT+0x54>)
 8001a22:	4293      	cmp	r3, r2
 8001a24:	d10a      	bne.n	8001a3c <HAL_TIM_Base_Start_IT+0x44>
 8001a26:	2107      	movs	r1, #7
 8001a28:	689a      	ldr	r2, [r3, #8]
 8001a2a:	2000      	movs	r0, #0
 8001a2c:	400a      	ands	r2, r1
 8001a2e:	2a06      	cmp	r2, #6
 8001a30:	d003      	beq.n	8001a3a <HAL_TIM_Base_Start_IT+0x42>
 8001a32:	2201      	movs	r2, #1
 8001a34:	6819      	ldr	r1, [r3, #0]
 8001a36:	430a      	orrs	r2, r1
 8001a38:	601a      	str	r2, [r3, #0]
 8001a3a:	4770      	bx	lr
 8001a3c:	681a      	ldr	r2, [r3, #0]
 8001a3e:	4310      	orrs	r0, r2
 8001a40:	6018      	str	r0, [r3, #0]
 8001a42:	2000      	movs	r0, #0
 8001a44:	e7f9      	b.n	8001a3a <HAL_TIM_Base_Start_IT+0x42>
 8001a46:	46c0      	nop			; (mov r8, r8)
 8001a48:	40012c00 	.word	0x40012c00
 8001a4c:	40000400 	.word	0x40000400

08001a50 <HAL_TIM_OC_DelayElapsedCallback>:
 8001a50:	4770      	bx	lr

08001a52 <HAL_TIM_IC_CaptureCallback>:
 8001a52:	4770      	bx	lr

08001a54 <HAL_TIM_PWM_PulseFinishedCallback>:
 8001a54:	4770      	bx	lr

08001a56 <HAL_TIM_TriggerCallback>:
 8001a56:	4770      	bx	lr

08001a58 <HAL_TIM_IRQHandler>:
 8001a58:	2202      	movs	r2, #2
 8001a5a:	6803      	ldr	r3, [r0, #0]
 8001a5c:	b510      	push	{r4, lr}
 8001a5e:	6919      	ldr	r1, [r3, #16]
 8001a60:	0004      	movs	r4, r0
 8001a62:	4211      	tst	r1, r2
 8001a64:	d00e      	beq.n	8001a84 <HAL_TIM_IRQHandler+0x2c>
 8001a66:	68d9      	ldr	r1, [r3, #12]
 8001a68:	4211      	tst	r1, r2
 8001a6a:	d00b      	beq.n	8001a84 <HAL_TIM_IRQHandler+0x2c>
 8001a6c:	3a05      	subs	r2, #5
 8001a6e:	611a      	str	r2, [r3, #16]
 8001a70:	3204      	adds	r2, #4
 8001a72:	7702      	strb	r2, [r0, #28]
 8001a74:	699b      	ldr	r3, [r3, #24]
 8001a76:	079b      	lsls	r3, r3, #30
 8001a78:	d100      	bne.n	8001a7c <HAL_TIM_IRQHandler+0x24>
 8001a7a:	e079      	b.n	8001b70 <HAL_TIM_IRQHandler+0x118>
 8001a7c:	f7ff ffe9 	bl	8001a52 <HAL_TIM_IC_CaptureCallback>
 8001a80:	2300      	movs	r3, #0
 8001a82:	7723      	strb	r3, [r4, #28]
 8001a84:	2204      	movs	r2, #4
 8001a86:	6823      	ldr	r3, [r4, #0]
 8001a88:	6919      	ldr	r1, [r3, #16]
 8001a8a:	4211      	tst	r1, r2
 8001a8c:	d010      	beq.n	8001ab0 <HAL_TIM_IRQHandler+0x58>
 8001a8e:	68d9      	ldr	r1, [r3, #12]
 8001a90:	4211      	tst	r1, r2
 8001a92:	d00d      	beq.n	8001ab0 <HAL_TIM_IRQHandler+0x58>
 8001a94:	3a09      	subs	r2, #9
 8001a96:	611a      	str	r2, [r3, #16]
 8001a98:	3207      	adds	r2, #7
 8001a9a:	7722      	strb	r2, [r4, #28]
 8001a9c:	699a      	ldr	r2, [r3, #24]
 8001a9e:	23c0      	movs	r3, #192	; 0xc0
 8001aa0:	009b      	lsls	r3, r3, #2
 8001aa2:	0020      	movs	r0, r4
 8001aa4:	421a      	tst	r2, r3
 8001aa6:	d069      	beq.n	8001b7c <HAL_TIM_IRQHandler+0x124>
 8001aa8:	f7ff ffd3 	bl	8001a52 <HAL_TIM_IC_CaptureCallback>
 8001aac:	2300      	movs	r3, #0
 8001aae:	7723      	strb	r3, [r4, #28]
 8001ab0:	2208      	movs	r2, #8
 8001ab2:	6823      	ldr	r3, [r4, #0]
 8001ab4:	6919      	ldr	r1, [r3, #16]
 8001ab6:	4211      	tst	r1, r2
 8001ab8:	d00e      	beq.n	8001ad8 <HAL_TIM_IRQHandler+0x80>
 8001aba:	68d9      	ldr	r1, [r3, #12]
 8001abc:	4211      	tst	r1, r2
 8001abe:	d00b      	beq.n	8001ad8 <HAL_TIM_IRQHandler+0x80>
 8001ac0:	3a11      	subs	r2, #17
 8001ac2:	611a      	str	r2, [r3, #16]
 8001ac4:	320d      	adds	r2, #13
 8001ac6:	7722      	strb	r2, [r4, #28]
 8001ac8:	69db      	ldr	r3, [r3, #28]
 8001aca:	0020      	movs	r0, r4
 8001acc:	079b      	lsls	r3, r3, #30
 8001ace:	d05b      	beq.n	8001b88 <HAL_TIM_IRQHandler+0x130>
 8001ad0:	f7ff ffbf 	bl	8001a52 <HAL_TIM_IC_CaptureCallback>
 8001ad4:	2300      	movs	r3, #0
 8001ad6:	7723      	strb	r3, [r4, #28]
 8001ad8:	2210      	movs	r2, #16
 8001ada:	6823      	ldr	r3, [r4, #0]
 8001adc:	6919      	ldr	r1, [r3, #16]
 8001ade:	4211      	tst	r1, r2
 8001ae0:	d010      	beq.n	8001b04 <HAL_TIM_IRQHandler+0xac>
 8001ae2:	68d9      	ldr	r1, [r3, #12]
 8001ae4:	4211      	tst	r1, r2
 8001ae6:	d00d      	beq.n	8001b04 <HAL_TIM_IRQHandler+0xac>
 8001ae8:	3a21      	subs	r2, #33	; 0x21
 8001aea:	611a      	str	r2, [r3, #16]
 8001aec:	3219      	adds	r2, #25
 8001aee:	7722      	strb	r2, [r4, #28]
 8001af0:	69da      	ldr	r2, [r3, #28]
 8001af2:	23c0      	movs	r3, #192	; 0xc0
 8001af4:	009b      	lsls	r3, r3, #2
 8001af6:	0020      	movs	r0, r4
 8001af8:	421a      	tst	r2, r3
 8001afa:	d04b      	beq.n	8001b94 <HAL_TIM_IRQHandler+0x13c>
 8001afc:	f7ff ffa9 	bl	8001a52 <HAL_TIM_IC_CaptureCallback>
 8001b00:	2300      	movs	r3, #0
 8001b02:	7723      	strb	r3, [r4, #28]
 8001b04:	2201      	movs	r2, #1
 8001b06:	6823      	ldr	r3, [r4, #0]
 8001b08:	6919      	ldr	r1, [r3, #16]
 8001b0a:	4211      	tst	r1, r2
 8001b0c:	d007      	beq.n	8001b1e <HAL_TIM_IRQHandler+0xc6>
 8001b0e:	68d9      	ldr	r1, [r3, #12]
 8001b10:	4211      	tst	r1, r2
 8001b12:	d004      	beq.n	8001b1e <HAL_TIM_IRQHandler+0xc6>
 8001b14:	3a03      	subs	r2, #3
 8001b16:	0020      	movs	r0, r4
 8001b18:	611a      	str	r2, [r3, #16]
 8001b1a:	f7fe fe05 	bl	8000728 <HAL_TIM_PeriodElapsedCallback>
 8001b1e:	2280      	movs	r2, #128	; 0x80
 8001b20:	6823      	ldr	r3, [r4, #0]
 8001b22:	6919      	ldr	r1, [r3, #16]
 8001b24:	4211      	tst	r1, r2
 8001b26:	d008      	beq.n	8001b3a <HAL_TIM_IRQHandler+0xe2>
 8001b28:	68d9      	ldr	r1, [r3, #12]
 8001b2a:	4211      	tst	r1, r2
 8001b2c:	d005      	beq.n	8001b3a <HAL_TIM_IRQHandler+0xe2>
 8001b2e:	3a02      	subs	r2, #2
 8001b30:	3aff      	subs	r2, #255	; 0xff
 8001b32:	0020      	movs	r0, r4
 8001b34:	611a      	str	r2, [r3, #16]
 8001b36:	f000 f8a4 	bl	8001c82 <HAL_TIMEx_BreakCallback>
 8001b3a:	2240      	movs	r2, #64	; 0x40
 8001b3c:	6823      	ldr	r3, [r4, #0]
 8001b3e:	6919      	ldr	r1, [r3, #16]
 8001b40:	4211      	tst	r1, r2
 8001b42:	d007      	beq.n	8001b54 <HAL_TIM_IRQHandler+0xfc>
 8001b44:	68d9      	ldr	r1, [r3, #12]
 8001b46:	4211      	tst	r1, r2
 8001b48:	d004      	beq.n	8001b54 <HAL_TIM_IRQHandler+0xfc>
 8001b4a:	3a81      	subs	r2, #129	; 0x81
 8001b4c:	0020      	movs	r0, r4
 8001b4e:	611a      	str	r2, [r3, #16]
 8001b50:	f7ff ff81 	bl	8001a56 <HAL_TIM_TriggerCallback>
 8001b54:	2220      	movs	r2, #32
 8001b56:	6823      	ldr	r3, [r4, #0]
 8001b58:	6919      	ldr	r1, [r3, #16]
 8001b5a:	4211      	tst	r1, r2
 8001b5c:	d007      	beq.n	8001b6e <HAL_TIM_IRQHandler+0x116>
 8001b5e:	68d9      	ldr	r1, [r3, #12]
 8001b60:	4211      	tst	r1, r2
 8001b62:	d004      	beq.n	8001b6e <HAL_TIM_IRQHandler+0x116>
 8001b64:	3a41      	subs	r2, #65	; 0x41
 8001b66:	0020      	movs	r0, r4
 8001b68:	611a      	str	r2, [r3, #16]
 8001b6a:	f000 f889 	bl	8001c80 <HAL_TIMEx_CommutCallback>
 8001b6e:	bd10      	pop	{r4, pc}
 8001b70:	f7ff ff6e 	bl	8001a50 <HAL_TIM_OC_DelayElapsedCallback>
 8001b74:	0020      	movs	r0, r4
 8001b76:	f7ff ff6d 	bl	8001a54 <HAL_TIM_PWM_PulseFinishedCallback>
 8001b7a:	e781      	b.n	8001a80 <HAL_TIM_IRQHandler+0x28>
 8001b7c:	f7ff ff68 	bl	8001a50 <HAL_TIM_OC_DelayElapsedCallback>
 8001b80:	0020      	movs	r0, r4
 8001b82:	f7ff ff67 	bl	8001a54 <HAL_TIM_PWM_PulseFinishedCallback>
 8001b86:	e791      	b.n	8001aac <HAL_TIM_IRQHandler+0x54>
 8001b88:	f7ff ff62 	bl	8001a50 <HAL_TIM_OC_DelayElapsedCallback>
 8001b8c:	0020      	movs	r0, r4
 8001b8e:	f7ff ff61 	bl	8001a54 <HAL_TIM_PWM_PulseFinishedCallback>
 8001b92:	e79f      	b.n	8001ad4 <HAL_TIM_IRQHandler+0x7c>
 8001b94:	f7ff ff5c 	bl	8001a50 <HAL_TIM_OC_DelayElapsedCallback>
 8001b98:	0020      	movs	r0, r4
 8001b9a:	f7ff ff5b 	bl	8001a54 <HAL_TIM_PWM_PulseFinishedCallback>
 8001b9e:	e7af      	b.n	8001b00 <HAL_TIM_IRQHandler+0xa8>

08001ba0 <TIM_Base_SetConfig>:
 8001ba0:	4a1d      	ldr	r2, [pc, #116]	; (8001c18 <TIM_Base_SetConfig+0x78>)
 8001ba2:	b510      	push	{r4, lr}
 8001ba4:	6803      	ldr	r3, [r0, #0]
 8001ba6:	4290      	cmp	r0, r2
 8001ba8:	d006      	beq.n	8001bb8 <TIM_Base_SetConfig+0x18>
 8001baa:	2480      	movs	r4, #128	; 0x80
 8001bac:	05e4      	lsls	r4, r4, #23
 8001bae:	42a0      	cmp	r0, r4
 8001bb0:	d002      	beq.n	8001bb8 <TIM_Base_SetConfig+0x18>
 8001bb2:	4c1a      	ldr	r4, [pc, #104]	; (8001c1c <TIM_Base_SetConfig+0x7c>)
 8001bb4:	42a0      	cmp	r0, r4
 8001bb6:	d10c      	bne.n	8001bd2 <TIM_Base_SetConfig+0x32>
 8001bb8:	2470      	movs	r4, #112	; 0x70
 8001bba:	43a3      	bics	r3, r4
 8001bbc:	684c      	ldr	r4, [r1, #4]
 8001bbe:	4323      	orrs	r3, r4
 8001bc0:	4290      	cmp	r0, r2
 8001bc2:	d00f      	beq.n	8001be4 <TIM_Base_SetConfig+0x44>
 8001bc4:	2480      	movs	r4, #128	; 0x80
 8001bc6:	05e4      	lsls	r4, r4, #23
 8001bc8:	42a0      	cmp	r0, r4
 8001bca:	d00b      	beq.n	8001be4 <TIM_Base_SetConfig+0x44>
 8001bcc:	4c13      	ldr	r4, [pc, #76]	; (8001c1c <TIM_Base_SetConfig+0x7c>)
 8001bce:	42a0      	cmp	r0, r4
 8001bd0:	d008      	beq.n	8001be4 <TIM_Base_SetConfig+0x44>
 8001bd2:	4c13      	ldr	r4, [pc, #76]	; (8001c20 <TIM_Base_SetConfig+0x80>)
 8001bd4:	42a0      	cmp	r0, r4
 8001bd6:	d005      	beq.n	8001be4 <TIM_Base_SetConfig+0x44>
 8001bd8:	4c12      	ldr	r4, [pc, #72]	; (8001c24 <TIM_Base_SetConfig+0x84>)
 8001bda:	42a0      	cmp	r0, r4
 8001bdc:	d002      	beq.n	8001be4 <TIM_Base_SetConfig+0x44>
 8001bde:	4c12      	ldr	r4, [pc, #72]	; (8001c28 <TIM_Base_SetConfig+0x88>)
 8001be0:	42a0      	cmp	r0, r4
 8001be2:	d103      	bne.n	8001bec <TIM_Base_SetConfig+0x4c>
 8001be4:	4c11      	ldr	r4, [pc, #68]	; (8001c2c <TIM_Base_SetConfig+0x8c>)
 8001be6:	4023      	ands	r3, r4
 8001be8:	68cc      	ldr	r4, [r1, #12]
 8001bea:	4323      	orrs	r3, r4
 8001bec:	2480      	movs	r4, #128	; 0x80
 8001bee:	43a3      	bics	r3, r4
 8001bf0:	694c      	ldr	r4, [r1, #20]
 8001bf2:	4323      	orrs	r3, r4
 8001bf4:	6003      	str	r3, [r0, #0]
 8001bf6:	688b      	ldr	r3, [r1, #8]
 8001bf8:	62c3      	str	r3, [r0, #44]	; 0x2c
 8001bfa:	680b      	ldr	r3, [r1, #0]
 8001bfc:	6283      	str	r3, [r0, #40]	; 0x28
 8001bfe:	4290      	cmp	r0, r2
 8001c00:	d005      	beq.n	8001c0e <TIM_Base_SetConfig+0x6e>
 8001c02:	4b08      	ldr	r3, [pc, #32]	; (8001c24 <TIM_Base_SetConfig+0x84>)
 8001c04:	4298      	cmp	r0, r3
 8001c06:	d002      	beq.n	8001c0e <TIM_Base_SetConfig+0x6e>
 8001c08:	4b07      	ldr	r3, [pc, #28]	; (8001c28 <TIM_Base_SetConfig+0x88>)
 8001c0a:	4298      	cmp	r0, r3
 8001c0c:	d101      	bne.n	8001c12 <TIM_Base_SetConfig+0x72>
 8001c0e:	690b      	ldr	r3, [r1, #16]
 8001c10:	6303      	str	r3, [r0, #48]	; 0x30
 8001c12:	2301      	movs	r3, #1
 8001c14:	6143      	str	r3, [r0, #20]
 8001c16:	bd10      	pop	{r4, pc}
 8001c18:	40012c00 	.word	0x40012c00
 8001c1c:	40000400 	.word	0x40000400
 8001c20:	40002000 	.word	0x40002000
 8001c24:	40014400 	.word	0x40014400
 8001c28:	40014800 	.word	0x40014800
 8001c2c:	fffffcff 	.word	0xfffffcff

08001c30 <HAL_TIM_Base_Init>:
 8001c30:	b570      	push	{r4, r5, r6, lr}
 8001c32:	0004      	movs	r4, r0
 8001c34:	2001      	movs	r0, #1
 8001c36:	2c00      	cmp	r4, #0
 8001c38:	d021      	beq.n	8001c7e <HAL_TIM_Base_Init+0x4e>
 8001c3a:	0025      	movs	r5, r4
 8001c3c:	353d      	adds	r5, #61	; 0x3d
 8001c3e:	782b      	ldrb	r3, [r5, #0]
 8001c40:	b2da      	uxtb	r2, r3
 8001c42:	2b00      	cmp	r3, #0
 8001c44:	d105      	bne.n	8001c52 <HAL_TIM_Base_Init+0x22>
 8001c46:	0023      	movs	r3, r4
 8001c48:	333c      	adds	r3, #60	; 0x3c
 8001c4a:	0020      	movs	r0, r4
 8001c4c:	701a      	strb	r2, [r3, #0]
 8001c4e:	f7fe fde3 	bl	8000818 <HAL_TIM_Base_MspInit>
 8001c52:	2302      	movs	r3, #2
 8001c54:	702b      	strb	r3, [r5, #0]
 8001c56:	6820      	ldr	r0, [r4, #0]
 8001c58:	1d21      	adds	r1, r4, #4
 8001c5a:	f7ff ffa1 	bl	8001ba0 <TIM_Base_SetConfig>
 8001c5e:	0022      	movs	r2, r4
 8001c60:	2301      	movs	r3, #1
 8001c62:	2000      	movs	r0, #0
 8001c64:	3246      	adds	r2, #70	; 0x46
 8001c66:	7013      	strb	r3, [r2, #0]
 8001c68:	3445      	adds	r4, #69	; 0x45
 8001c6a:	3a08      	subs	r2, #8
 8001c6c:	7013      	strb	r3, [r2, #0]
 8001c6e:	7053      	strb	r3, [r2, #1]
 8001c70:	7093      	strb	r3, [r2, #2]
 8001c72:	70d3      	strb	r3, [r2, #3]
 8001c74:	7113      	strb	r3, [r2, #4]
 8001c76:	7153      	strb	r3, [r2, #5]
 8001c78:	7193      	strb	r3, [r2, #6]
 8001c7a:	7023      	strb	r3, [r4, #0]
 8001c7c:	702b      	strb	r3, [r5, #0]
 8001c7e:	bd70      	pop	{r4, r5, r6, pc}

08001c80 <HAL_TIMEx_CommutCallback>:
 8001c80:	4770      	bx	lr

08001c82 <HAL_TIMEx_BreakCallback>:
 8001c82:	4770      	bx	lr

08001c84 <UART_SetConfig>:
 8001c84:	b570      	push	{r4, r5, r6, lr}
 8001c86:	0004      	movs	r4, r0
 8001c88:	6925      	ldr	r5, [r4, #16]
 8001c8a:	68a2      	ldr	r2, [r4, #8]
 8001c8c:	6801      	ldr	r1, [r0, #0]
 8001c8e:	432a      	orrs	r2, r5
 8001c90:	6965      	ldr	r5, [r4, #20]
 8001c92:	69c3      	ldr	r3, [r0, #28]
 8001c94:	432a      	orrs	r2, r5
 8001c96:	6808      	ldr	r0, [r1, #0]
 8001c98:	4d39      	ldr	r5, [pc, #228]	; (8001d80 <UART_SetConfig+0xfc>)
 8001c9a:	431a      	orrs	r2, r3
 8001c9c:	4028      	ands	r0, r5
 8001c9e:	4302      	orrs	r2, r0
 8001ca0:	600a      	str	r2, [r1, #0]
 8001ca2:	684a      	ldr	r2, [r1, #4]
 8001ca4:	4837      	ldr	r0, [pc, #220]	; (8001d84 <UART_SetConfig+0x100>)
 8001ca6:	6a25      	ldr	r5, [r4, #32]
 8001ca8:	4002      	ands	r2, r0
 8001caa:	68e0      	ldr	r0, [r4, #12]
 8001cac:	4302      	orrs	r2, r0
 8001cae:	604a      	str	r2, [r1, #4]
 8001cb0:	69a2      	ldr	r2, [r4, #24]
 8001cb2:	6888      	ldr	r0, [r1, #8]
 8001cb4:	432a      	orrs	r2, r5
 8001cb6:	4d34      	ldr	r5, [pc, #208]	; (8001d88 <UART_SetConfig+0x104>)
 8001cb8:	4028      	ands	r0, r5
 8001cba:	4302      	orrs	r2, r0
 8001cbc:	608a      	str	r2, [r1, #8]
 8001cbe:	2103      	movs	r1, #3
 8001cc0:	4a32      	ldr	r2, [pc, #200]	; (8001d8c <UART_SetConfig+0x108>)
 8001cc2:	6b12      	ldr	r2, [r2, #48]	; 0x30
 8001cc4:	400a      	ands	r2, r1
 8001cc6:	2180      	movs	r1, #128	; 0x80
 8001cc8:	3a01      	subs	r2, #1
 8001cca:	0209      	lsls	r1, r1, #8
 8001ccc:	2a02      	cmp	r2, #2
 8001cce:	d84c      	bhi.n	8001d6a <UART_SetConfig+0xe6>
 8001cd0:	482f      	ldr	r0, [pc, #188]	; (8001d90 <UART_SetConfig+0x10c>)
 8001cd2:	5c80      	ldrb	r0, [r0, r2]
 8001cd4:	428b      	cmp	r3, r1
 8001cd6:	d124      	bne.n	8001d22 <UART_SetConfig+0x9e>
 8001cd8:	2808      	cmp	r0, #8
 8001cda:	d817      	bhi.n	8001d0c <UART_SetConfig+0x88>
 8001cdc:	f7fe fa1e 	bl	800011c <__gnu_thumb1_case_uqi>
 8001ce0:	16081647 	.word	0x16081647
 8001ce4:	16161605 	.word	0x16161605
 8001ce8:	09          	.byte	0x09
 8001ce9:	00          	.byte	0x00
 8001cea:	f7ff fa59 	bl	80011a0 <HAL_RCC_GetSysClockFreq>
 8001cee:	e040      	b.n	8001d72 <UART_SetConfig+0xee>
 8001cf0:	4b28      	ldr	r3, [pc, #160]	; (8001d94 <UART_SetConfig+0x110>)
 8001cf2:	0058      	lsls	r0, r3, #1
 8001cf4:	6863      	ldr	r3, [r4, #4]
 8001cf6:	6861      	ldr	r1, [r4, #4]
 8001cf8:	085b      	lsrs	r3, r3, #1
 8001cfa:	18c0      	adds	r0, r0, r3
 8001cfc:	f7fe fa18 	bl	8000130 <__udivsi3>
 8001d00:	4925      	ldr	r1, [pc, #148]	; (8001d98 <UART_SetConfig+0x114>)
 8001d02:	b282      	uxth	r2, r0
 8001d04:	3a10      	subs	r2, #16
 8001d06:	0403      	lsls	r3, r0, #16
 8001d08:	428a      	cmp	r2, r1
 8001d0a:	d901      	bls.n	8001d10 <UART_SetConfig+0x8c>
 8001d0c:	2001      	movs	r0, #1
 8001d0e:	e033      	b.n	8001d78 <UART_SetConfig+0xf4>
 8001d10:	220f      	movs	r2, #15
 8001d12:	031b      	lsls	r3, r3, #12
 8001d14:	4390      	bics	r0, r2
 8001d16:	b280      	uxth	r0, r0
 8001d18:	6822      	ldr	r2, [r4, #0]
 8001d1a:	0f5b      	lsrs	r3, r3, #29
 8001d1c:	4318      	orrs	r0, r3
 8001d1e:	60d0      	str	r0, [r2, #12]
 8001d20:	e029      	b.n	8001d76 <UART_SetConfig+0xf2>
 8001d22:	2808      	cmp	r0, #8
 8001d24:	d8f2      	bhi.n	8001d0c <UART_SetConfig+0x88>
 8001d26:	f7fe f9ef 	bl	8000108 <__gnu_thumb1_case_sqi>
 8001d2a:	f116      	.short	0xf116
 8001d2c:	f11bf11e 	.word	0xf11bf11e
 8001d30:	f1f1      	.short	0xf1f1
 8001d32:	05          	.byte	0x05
 8001d33:	00          	.byte	0x00
 8001d34:	2080      	movs	r0, #128	; 0x80
 8001d36:	0200      	lsls	r0, r0, #8
 8001d38:	6863      	ldr	r3, [r4, #4]
 8001d3a:	6861      	ldr	r1, [r4, #4]
 8001d3c:	085b      	lsrs	r3, r3, #1
 8001d3e:	1818      	adds	r0, r3, r0
 8001d40:	f7fe f9f6 	bl	8000130 <__udivsi3>
 8001d44:	b280      	uxth	r0, r0
 8001d46:	0002      	movs	r2, r0
 8001d48:	4b13      	ldr	r3, [pc, #76]	; (8001d98 <UART_SetConfig+0x114>)
 8001d4a:	3a10      	subs	r2, #16
 8001d4c:	429a      	cmp	r2, r3
 8001d4e:	d8dd      	bhi.n	8001d0c <UART_SetConfig+0x88>
 8001d50:	6823      	ldr	r3, [r4, #0]
 8001d52:	60d8      	str	r0, [r3, #12]
 8001d54:	e00f      	b.n	8001d76 <UART_SetConfig+0xf2>
 8001d56:	f7ff fadf 	bl	8001318 <HAL_RCC_GetPCLK1Freq>
 8001d5a:	2800      	cmp	r0, #0
 8001d5c:	d00b      	beq.n	8001d76 <UART_SetConfig+0xf2>
 8001d5e:	e7eb      	b.n	8001d38 <UART_SetConfig+0xb4>
 8001d60:	f7ff fa1e 	bl	80011a0 <HAL_RCC_GetSysClockFreq>
 8001d64:	e7f9      	b.n	8001d5a <UART_SetConfig+0xd6>
 8001d66:	480b      	ldr	r0, [pc, #44]	; (8001d94 <UART_SetConfig+0x110>)
 8001d68:	e7e6      	b.n	8001d38 <UART_SetConfig+0xb4>
 8001d6a:	428b      	cmp	r3, r1
 8001d6c:	d1f3      	bne.n	8001d56 <UART_SetConfig+0xd2>
 8001d6e:	f7ff fad3 	bl	8001318 <HAL_RCC_GetPCLK1Freq>
 8001d72:	1e03      	subs	r3, r0, #0
 8001d74:	d1bd      	bne.n	8001cf2 <UART_SetConfig+0x6e>
 8001d76:	2000      	movs	r0, #0
 8001d78:	2300      	movs	r3, #0
 8001d7a:	6663      	str	r3, [r4, #100]	; 0x64
 8001d7c:	66a3      	str	r3, [r4, #104]	; 0x68
 8001d7e:	bd70      	pop	{r4, r5, r6, pc}
 8001d80:	ffff69f3 	.word	0xffff69f3
 8001d84:	ffffcfff 	.word	0xffffcfff
 8001d88:	fffff4ff 	.word	0xfffff4ff
 8001d8c:	40021000 	.word	0x40021000
 8001d90:	0800212b 	.word	0x0800212b
 8001d94:	007a1200 	.word	0x007a1200
 8001d98:	0000ffef 	.word	0x0000ffef

08001d9c <UART_AdvFeatureConfig>:
 8001d9c:	6a43      	ldr	r3, [r0, #36]	; 0x24
 8001d9e:	b530      	push	{r4, r5, lr}
 8001da0:	07da      	lsls	r2, r3, #31
 8001da2:	d506      	bpl.n	8001db2 <UART_AdvFeatureConfig+0x16>
 8001da4:	6801      	ldr	r1, [r0, #0]
 8001da6:	4c28      	ldr	r4, [pc, #160]	; (8001e48 <UART_AdvFeatureConfig+0xac>)
 8001da8:	684a      	ldr	r2, [r1, #4]
 8001daa:	4022      	ands	r2, r4
 8001dac:	6a84      	ldr	r4, [r0, #40]	; 0x28
 8001dae:	4322      	orrs	r2, r4
 8001db0:	604a      	str	r2, [r1, #4]
 8001db2:	079a      	lsls	r2, r3, #30
 8001db4:	d506      	bpl.n	8001dc4 <UART_AdvFeatureConfig+0x28>
 8001db6:	6801      	ldr	r1, [r0, #0]
 8001db8:	4c24      	ldr	r4, [pc, #144]	; (8001e4c <UART_AdvFeatureConfig+0xb0>)
 8001dba:	684a      	ldr	r2, [r1, #4]
 8001dbc:	4022      	ands	r2, r4
 8001dbe:	6ac4      	ldr	r4, [r0, #44]	; 0x2c
 8001dc0:	4322      	orrs	r2, r4
 8001dc2:	604a      	str	r2, [r1, #4]
 8001dc4:	075a      	lsls	r2, r3, #29
 8001dc6:	d506      	bpl.n	8001dd6 <UART_AdvFeatureConfig+0x3a>
 8001dc8:	6801      	ldr	r1, [r0, #0]
 8001dca:	4c21      	ldr	r4, [pc, #132]	; (8001e50 <UART_AdvFeatureConfig+0xb4>)
 8001dcc:	684a      	ldr	r2, [r1, #4]
 8001dce:	4022      	ands	r2, r4
 8001dd0:	6b04      	ldr	r4, [r0, #48]	; 0x30
 8001dd2:	4322      	orrs	r2, r4
 8001dd4:	604a      	str	r2, [r1, #4]
 8001dd6:	071a      	lsls	r2, r3, #28
 8001dd8:	d506      	bpl.n	8001de8 <UART_AdvFeatureConfig+0x4c>
 8001dda:	6801      	ldr	r1, [r0, #0]
 8001ddc:	4c1d      	ldr	r4, [pc, #116]	; (8001e54 <UART_AdvFeatureConfig+0xb8>)
 8001dde:	684a      	ldr	r2, [r1, #4]
 8001de0:	4022      	ands	r2, r4
 8001de2:	6b44      	ldr	r4, [r0, #52]	; 0x34
 8001de4:	4322      	orrs	r2, r4
 8001de6:	604a      	str	r2, [r1, #4]
 8001de8:	06da      	lsls	r2, r3, #27
 8001dea:	d506      	bpl.n	8001dfa <UART_AdvFeatureConfig+0x5e>
 8001dec:	6801      	ldr	r1, [r0, #0]
 8001dee:	4c1a      	ldr	r4, [pc, #104]	; (8001e58 <UART_AdvFeatureConfig+0xbc>)
 8001df0:	688a      	ldr	r2, [r1, #8]
 8001df2:	4022      	ands	r2, r4
 8001df4:	6b84      	ldr	r4, [r0, #56]	; 0x38
 8001df6:	4322      	orrs	r2, r4
 8001df8:	608a      	str	r2, [r1, #8]
 8001dfa:	069a      	lsls	r2, r3, #26
 8001dfc:	d506      	bpl.n	8001e0c <UART_AdvFeatureConfig+0x70>
 8001dfe:	6801      	ldr	r1, [r0, #0]
 8001e00:	4c16      	ldr	r4, [pc, #88]	; (8001e5c <UART_AdvFeatureConfig+0xc0>)
 8001e02:	688a      	ldr	r2, [r1, #8]
 8001e04:	4022      	ands	r2, r4
 8001e06:	6bc4      	ldr	r4, [r0, #60]	; 0x3c
 8001e08:	4322      	orrs	r2, r4
 8001e0a:	608a      	str	r2, [r1, #8]
 8001e0c:	065a      	lsls	r2, r3, #25
 8001e0e:	d510      	bpl.n	8001e32 <UART_AdvFeatureConfig+0x96>
 8001e10:	6801      	ldr	r1, [r0, #0]
 8001e12:	4d13      	ldr	r5, [pc, #76]	; (8001e60 <UART_AdvFeatureConfig+0xc4>)
 8001e14:	684a      	ldr	r2, [r1, #4]
 8001e16:	6c04      	ldr	r4, [r0, #64]	; 0x40
 8001e18:	402a      	ands	r2, r5
 8001e1a:	4322      	orrs	r2, r4
 8001e1c:	604a      	str	r2, [r1, #4]
 8001e1e:	2280      	movs	r2, #128	; 0x80
 8001e20:	0352      	lsls	r2, r2, #13
 8001e22:	4294      	cmp	r4, r2
 8001e24:	d105      	bne.n	8001e32 <UART_AdvFeatureConfig+0x96>
 8001e26:	684a      	ldr	r2, [r1, #4]
 8001e28:	4c0e      	ldr	r4, [pc, #56]	; (8001e64 <UART_AdvFeatureConfig+0xc8>)
 8001e2a:	4022      	ands	r2, r4
 8001e2c:	6c44      	ldr	r4, [r0, #68]	; 0x44
 8001e2e:	4322      	orrs	r2, r4
 8001e30:	604a      	str	r2, [r1, #4]
 8001e32:	061b      	lsls	r3, r3, #24
 8001e34:	d506      	bpl.n	8001e44 <UART_AdvFeatureConfig+0xa8>
 8001e36:	6802      	ldr	r2, [r0, #0]
 8001e38:	490b      	ldr	r1, [pc, #44]	; (8001e68 <UART_AdvFeatureConfig+0xcc>)
 8001e3a:	6853      	ldr	r3, [r2, #4]
 8001e3c:	400b      	ands	r3, r1
 8001e3e:	6c81      	ldr	r1, [r0, #72]	; 0x48
 8001e40:	430b      	orrs	r3, r1
 8001e42:	6053      	str	r3, [r2, #4]
 8001e44:	bd30      	pop	{r4, r5, pc}
 8001e46:	46c0      	nop			; (mov r8, r8)
 8001e48:	fffdffff 	.word	0xfffdffff
 8001e4c:	fffeffff 	.word	0xfffeffff
 8001e50:	fffbffff 	.word	0xfffbffff
 8001e54:	ffff7fff 	.word	0xffff7fff
 8001e58:	ffffefff 	.word	0xffffefff
 8001e5c:	ffffdfff 	.word	0xffffdfff
 8001e60:	ffefffff 	.word	0xffefffff
 8001e64:	ff9fffff 	.word	0xff9fffff
 8001e68:	fff7ffff 	.word	0xfff7ffff

08001e6c <UART_WaitOnFlagUntilTimeout>:
 8001e6c:	b5f7      	push	{r0, r1, r2, r4, r5, r6, r7, lr}
 8001e6e:	2780      	movs	r7, #128	; 0x80
 8001e70:	0004      	movs	r4, r0
 8001e72:	000d      	movs	r5, r1
 8001e74:	0016      	movs	r6, r2
 8001e76:	9301      	str	r3, [sp, #4]
 8001e78:	013f      	lsls	r7, r7, #4
 8001e7a:	6822      	ldr	r2, [r4, #0]
 8001e7c:	69d3      	ldr	r3, [r2, #28]
 8001e7e:	402b      	ands	r3, r5
 8001e80:	1b5b      	subs	r3, r3, r5
 8001e82:	4259      	negs	r1, r3
 8001e84:	414b      	adcs	r3, r1
 8001e86:	42b3      	cmp	r3, r6
 8001e88:	d001      	beq.n	8001e8e <UART_WaitOnFlagUntilTimeout+0x22>
 8001e8a:	2000      	movs	r0, #0
 8001e8c:	e028      	b.n	8001ee0 <UART_WaitOnFlagUntilTimeout+0x74>
 8001e8e:	9b08      	ldr	r3, [sp, #32]
 8001e90:	3301      	adds	r3, #1
 8001e92:	d0f3      	beq.n	8001e7c <UART_WaitOnFlagUntilTimeout+0x10>
 8001e94:	f7fe fd9c 	bl	80009d0 <HAL_GetTick>
 8001e98:	9b01      	ldr	r3, [sp, #4]
 8001e9a:	1ac0      	subs	r0, r0, r3
 8001e9c:	9b08      	ldr	r3, [sp, #32]
 8001e9e:	4298      	cmp	r0, r3
 8001ea0:	d801      	bhi.n	8001ea6 <UART_WaitOnFlagUntilTimeout+0x3a>
 8001ea2:	2b00      	cmp	r3, #0
 8001ea4:	d11d      	bne.n	8001ee2 <UART_WaitOnFlagUntilTimeout+0x76>
 8001ea6:	f3ef 8010 	mrs	r0, PRIMASK
 8001eaa:	2201      	movs	r2, #1
 8001eac:	f382 8810 	msr	PRIMASK, r2
 8001eb0:	6821      	ldr	r1, [r4, #0]
 8001eb2:	4d1e      	ldr	r5, [pc, #120]	; (8001f2c <UART_WaitOnFlagUntilTimeout+0xc0>)
 8001eb4:	680b      	ldr	r3, [r1, #0]
 8001eb6:	402b      	ands	r3, r5
 8001eb8:	600b      	str	r3, [r1, #0]
 8001eba:	f380 8810 	msr	PRIMASK, r0
 8001ebe:	f3ef 8010 	mrs	r0, PRIMASK
 8001ec2:	f382 8810 	msr	PRIMASK, r2
 8001ec6:	6821      	ldr	r1, [r4, #0]
 8001ec8:	688b      	ldr	r3, [r1, #8]
 8001eca:	4393      	bics	r3, r2
 8001ecc:	608b      	str	r3, [r1, #8]
 8001ece:	f380 8810 	msr	PRIMASK, r0
 8001ed2:	2320      	movs	r3, #32
 8001ed4:	67a3      	str	r3, [r4, #120]	; 0x78
 8001ed6:	67e3      	str	r3, [r4, #124]	; 0x7c
 8001ed8:	2300      	movs	r3, #0
 8001eda:	2003      	movs	r0, #3
 8001edc:	3474      	adds	r4, #116	; 0x74
 8001ede:	7023      	strb	r3, [r4, #0]
 8001ee0:	bdfe      	pop	{r1, r2, r3, r4, r5, r6, r7, pc}
 8001ee2:	2104      	movs	r1, #4
 8001ee4:	6823      	ldr	r3, [r4, #0]
 8001ee6:	681a      	ldr	r2, [r3, #0]
 8001ee8:	420a      	tst	r2, r1
 8001eea:	d0c6      	beq.n	8001e7a <UART_WaitOnFlagUntilTimeout+0xe>
 8001eec:	69da      	ldr	r2, [r3, #28]
 8001eee:	423a      	tst	r2, r7
 8001ef0:	d0c3      	beq.n	8001e7a <UART_WaitOnFlagUntilTimeout+0xe>
 8001ef2:	621f      	str	r7, [r3, #32]
 8001ef4:	f3ef 8010 	mrs	r0, PRIMASK
 8001ef8:	2201      	movs	r2, #1
 8001efa:	f382 8810 	msr	PRIMASK, r2
 8001efe:	6821      	ldr	r1, [r4, #0]
 8001f00:	4d0a      	ldr	r5, [pc, #40]	; (8001f2c <UART_WaitOnFlagUntilTimeout+0xc0>)
 8001f02:	680b      	ldr	r3, [r1, #0]
 8001f04:	402b      	ands	r3, r5
 8001f06:	600b      	str	r3, [r1, #0]
 8001f08:	f380 8810 	msr	PRIMASK, r0
 8001f0c:	f3ef 8010 	mrs	r0, PRIMASK
 8001f10:	f382 8810 	msr	PRIMASK, r2
 8001f14:	6821      	ldr	r1, [r4, #0]
 8001f16:	688b      	ldr	r3, [r1, #8]
 8001f18:	4393      	bics	r3, r2
 8001f1a:	608b      	str	r3, [r1, #8]
 8001f1c:	f380 8810 	msr	PRIMASK, r0
 8001f20:	2320      	movs	r3, #32
 8001f22:	1d22      	adds	r2, r4, #4
 8001f24:	67a3      	str	r3, [r4, #120]	; 0x78
 8001f26:	67e3      	str	r3, [r4, #124]	; 0x7c
 8001f28:	67d3      	str	r3, [r2, #124]	; 0x7c
 8001f2a:	e7d5      	b.n	8001ed8 <UART_WaitOnFlagUntilTimeout+0x6c>
 8001f2c:	fffffe5f 	.word	0xfffffe5f

08001f30 <UART_CheckIdleState>:
 8001f30:	b573      	push	{r0, r1, r4, r5, r6, lr}
 8001f32:	2600      	movs	r6, #0
 8001f34:	0004      	movs	r4, r0
 8001f36:	1d03      	adds	r3, r0, #4
 8001f38:	67de      	str	r6, [r3, #124]	; 0x7c
 8001f3a:	f7fe fd49 	bl	80009d0 <HAL_GetTick>
 8001f3e:	6823      	ldr	r3, [r4, #0]
 8001f40:	0005      	movs	r5, r0
 8001f42:	681b      	ldr	r3, [r3, #0]
 8001f44:	071b      	lsls	r3, r3, #28
 8001f46:	d416      	bmi.n	8001f76 <UART_CheckIdleState+0x46>
 8001f48:	6823      	ldr	r3, [r4, #0]
 8001f4a:	681b      	ldr	r3, [r3, #0]
 8001f4c:	075b      	lsls	r3, r3, #29
 8001f4e:	d50a      	bpl.n	8001f66 <UART_CheckIdleState+0x36>
 8001f50:	2180      	movs	r1, #128	; 0x80
 8001f52:	4b0f      	ldr	r3, [pc, #60]	; (8001f90 <UART_CheckIdleState+0x60>)
 8001f54:	2200      	movs	r2, #0
 8001f56:	9300      	str	r3, [sp, #0]
 8001f58:	0020      	movs	r0, r4
 8001f5a:	002b      	movs	r3, r5
 8001f5c:	03c9      	lsls	r1, r1, #15
 8001f5e:	f7ff ff85 	bl	8001e6c <UART_WaitOnFlagUntilTimeout>
 8001f62:	2800      	cmp	r0, #0
 8001f64:	d112      	bne.n	8001f8c <UART_CheckIdleState+0x5c>
 8001f66:	2320      	movs	r3, #32
 8001f68:	2000      	movs	r0, #0
 8001f6a:	67a3      	str	r3, [r4, #120]	; 0x78
 8001f6c:	67e3      	str	r3, [r4, #124]	; 0x7c
 8001f6e:	6620      	str	r0, [r4, #96]	; 0x60
 8001f70:	3474      	adds	r4, #116	; 0x74
 8001f72:	7020      	strb	r0, [r4, #0]
 8001f74:	e00b      	b.n	8001f8e <UART_CheckIdleState+0x5e>
 8001f76:	2180      	movs	r1, #128	; 0x80
 8001f78:	4b05      	ldr	r3, [pc, #20]	; (8001f90 <UART_CheckIdleState+0x60>)
 8001f7a:	0032      	movs	r2, r6
 8001f7c:	9300      	str	r3, [sp, #0]
 8001f7e:	0389      	lsls	r1, r1, #14
 8001f80:	0003      	movs	r3, r0
 8001f82:	0020      	movs	r0, r4
 8001f84:	f7ff ff72 	bl	8001e6c <UART_WaitOnFlagUntilTimeout>
 8001f88:	2800      	cmp	r0, #0
 8001f8a:	d0dd      	beq.n	8001f48 <UART_CheckIdleState+0x18>
 8001f8c:	2003      	movs	r0, #3
 8001f8e:	bd76      	pop	{r1, r2, r4, r5, r6, pc}
 8001f90:	01ffffff 	.word	0x01ffffff

08001f94 <HAL_UART_Init>:
 8001f94:	b510      	push	{r4, lr}
 8001f96:	1e04      	subs	r4, r0, #0
 8001f98:	d101      	bne.n	8001f9e <HAL_UART_Init+0xa>
 8001f9a:	2001      	movs	r0, #1
 8001f9c:	bd10      	pop	{r4, pc}
 8001f9e:	6f83      	ldr	r3, [r0, #120]	; 0x78
 8001fa0:	2b00      	cmp	r3, #0
 8001fa2:	d104      	bne.n	8001fae <HAL_UART_Init+0x1a>
 8001fa4:	0002      	movs	r2, r0
 8001fa6:	3274      	adds	r2, #116	; 0x74
 8001fa8:	7013      	strb	r3, [r2, #0]
 8001faa:	f7fe fc51 	bl	8000850 <HAL_UART_MspInit>
 8001fae:	2324      	movs	r3, #36	; 0x24
 8001fb0:	2101      	movs	r1, #1
 8001fb2:	6822      	ldr	r2, [r4, #0]
 8001fb4:	67a3      	str	r3, [r4, #120]	; 0x78
 8001fb6:	6813      	ldr	r3, [r2, #0]
 8001fb8:	0020      	movs	r0, r4
 8001fba:	438b      	bics	r3, r1
 8001fbc:	6013      	str	r3, [r2, #0]
 8001fbe:	f7ff fe61 	bl	8001c84 <UART_SetConfig>
 8001fc2:	2801      	cmp	r0, #1
 8001fc4:	d0e9      	beq.n	8001f9a <HAL_UART_Init+0x6>
 8001fc6:	6a63      	ldr	r3, [r4, #36]	; 0x24
 8001fc8:	2b00      	cmp	r3, #0
 8001fca:	d002      	beq.n	8001fd2 <HAL_UART_Init+0x3e>
 8001fcc:	0020      	movs	r0, r4
 8001fce:	f7ff fee5 	bl	8001d9c <UART_AdvFeatureConfig>
 8001fd2:	6823      	ldr	r3, [r4, #0]
 8001fd4:	4907      	ldr	r1, [pc, #28]	; (8001ff4 <HAL_UART_Init+0x60>)
 8001fd6:	685a      	ldr	r2, [r3, #4]
 8001fd8:	0020      	movs	r0, r4
 8001fda:	400a      	ands	r2, r1
 8001fdc:	212a      	movs	r1, #42	; 0x2a
 8001fde:	605a      	str	r2, [r3, #4]
 8001fe0:	689a      	ldr	r2, [r3, #8]
 8001fe2:	438a      	bics	r2, r1
 8001fe4:	609a      	str	r2, [r3, #8]
 8001fe6:	2201      	movs	r2, #1
 8001fe8:	6819      	ldr	r1, [r3, #0]
 8001fea:	430a      	orrs	r2, r1
 8001fec:	601a      	str	r2, [r3, #0]
 8001fee:	f7ff ff9f 	bl	8001f30 <UART_CheckIdleState>
 8001ff2:	e7d3      	b.n	8001f9c <HAL_UART_Init+0x8>
 8001ff4:	ffffb7ff 	.word	0xffffb7ff

08001ff8 <__libc_init_array>:
 8001ff8:	b570      	push	{r4, r5, r6, lr}
 8001ffa:	2600      	movs	r6, #0
 8001ffc:	4d0c      	ldr	r5, [pc, #48]	; (8002030 <__libc_init_array+0x38>)
 8001ffe:	4c0d      	ldr	r4, [pc, #52]	; (8002034 <__libc_init_array+0x3c>)
 8002000:	1b64      	subs	r4, r4, r5
 8002002:	10a4      	asrs	r4, r4, #2
 8002004:	42a6      	cmp	r6, r4
 8002006:	d109      	bne.n	800201c <__libc_init_array+0x24>
 8002008:	2600      	movs	r6, #0
 800200a:	f000 f82b 	bl	8002064 <_init>
 800200e:	4d0a      	ldr	r5, [pc, #40]	; (8002038 <__libc_init_array+0x40>)
 8002010:	4c0a      	ldr	r4, [pc, #40]	; (800203c <__libc_init_array+0x44>)
 8002012:	1b64      	subs	r4, r4, r5
 8002014:	10a4      	asrs	r4, r4, #2
 8002016:	42a6      	cmp	r6, r4
 8002018:	d105      	bne.n	8002026 <__libc_init_array+0x2e>
 800201a:	bd70      	pop	{r4, r5, r6, pc}
 800201c:	00b3      	lsls	r3, r6, #2
 800201e:	58eb      	ldr	r3, [r5, r3]
 8002020:	4798      	blx	r3
 8002022:	3601      	adds	r6, #1
 8002024:	e7ee      	b.n	8002004 <__libc_init_array+0xc>
 8002026:	00b3      	lsls	r3, r6, #2
 8002028:	58eb      	ldr	r3, [r5, r3]
 800202a:	4798      	blx	r3
 800202c:	3601      	adds	r6, #1
 800202e:	e7f2      	b.n	8002016 <__libc_init_array+0x1e>
 8002030:	08002130 	.word	0x08002130
 8002034:	08002130 	.word	0x08002130
 8002038:	08002130 	.word	0x08002130
 800203c:	08002134 	.word	0x08002134

08002040 <memcpy>:
 8002040:	2300      	movs	r3, #0
 8002042:	b510      	push	{r4, lr}
 8002044:	429a      	cmp	r2, r3
 8002046:	d100      	bne.n	800204a <memcpy+0xa>
 8002048:	bd10      	pop	{r4, pc}
 800204a:	5ccc      	ldrb	r4, [r1, r3]
 800204c:	54c4      	strb	r4, [r0, r3]
 800204e:	3301      	adds	r3, #1
 8002050:	e7f8      	b.n	8002044 <memcpy+0x4>

08002052 <memset>:
 8002052:	0003      	movs	r3, r0
 8002054:	1882      	adds	r2, r0, r2
 8002056:	4293      	cmp	r3, r2
 8002058:	d100      	bne.n	800205c <memset+0xa>
 800205a:	4770      	bx	lr
 800205c:	7019      	strb	r1, [r3, #0]
 800205e:	3301      	adds	r3, #1
 8002060:	e7f9      	b.n	8002056 <memset+0x4>
	...

08002064 <_init>:
 8002064:	b5f8      	push	{r3, r4, r5, r6, r7, lr}
 8002066:	46c0      	nop			; (mov r8, r8)
 8002068:	bcf8      	pop	{r3, r4, r5, r6, r7}
 800206a:	bc08      	pop	{r3}
 800206c:	469e      	mov	lr, r3
 800206e:	4770      	bx	lr

08002070 <_fini>:
 8002070:	b5f8      	push	{r3, r4, r5, r6, r7, lr}
 8002072:	46c0      	nop			; (mov r8, r8)
 8002074:	bcf8      	pop	{r3, r4, r5, r6, r7}
 8002076:	bc08      	pop	{r3}
 8002078:	469e      	mov	lr, r3
 800207a:	4770      	bx	lr
