
Pyrkon_F031K6.elf:     file format elf32-littlearm

Sections:
Idx Name          Size      VMA       LMA       File off  Algn
  0 .isr_vector   000000c0  08000000  08000000  00010000  2**0
                  CONTENTS, ALLOC, LOAD, READONLY, DATA
  1 .text         000020f4  080000c0  080000c0  000100c0  2**2
                  CONTENTS, ALLOC, LOAD, READONLY, CODE
  2 .rodata       000000a8  080021b4  080021b4  000121b4  2**0
                  CONTENTS, ALLOC, LOAD, READONLY, DATA
  3 .ARM.extab    00000000  0800225c  0800225c  00020010  2**0
                  CONTENTS
  4 .ARM          00000000  0800225c  0800225c  00020010  2**0
                  CONTENTS
  5 .preinit_array 00000000  0800225c  0800225c  00020010  2**0
                  CONTENTS, ALLOC, LOAD, DATA
  6 .init_array   00000004  0800225c  0800225c  0001225c  2**2
                  CONTENTS, ALLOC, LOAD, DATA
  7 .fini_array   00000004  08002260  08002260  00012260  2**2
                  CONTENTS, ALLOC, LOAD, DATA
  8 .data         00000010  20000000  08002264  00020000  2**2
                  CONTENTS, ALLOC, LOAD, DATA
  9 .bss          00000684  20000010  08002274  00020010  2**2
                  ALLOC
 10 ._user_heap_stack 00000604  20000694  08002274  00020694  2**0
                  ALLOC
 11 .ARM.attributes 00000028  00000000  00000000  00020010  2**0
                  CONTENTS, READONLY
 12 .comment      00000050  00000000  00000000  00020038  2**0
                  CONTENTS, READONLY
 13 .debug_frame  00000094  00000000  00000000  00020088  2**2
                  CONTENTS, READONLY, DEBUGGING, OCTETS

Disassembly of section .text:

080000c0 <__do_global_dtors_aux>:
 80000c0:	b510      	push	{r4, lr}
 80000c2:	4c06      	ldr	r4, [pc, #24]	; (80000dc <__do_global_dtors_aux+0x1c>)
 80000c4:	7823      	ldrb	r3, [r4, #0]
 80000c6:	2b00      	cmp	r3, #0
 80000c8:	d107      	bne.n	80000da <__do_global_dtors_aux+0x1a>
 80000ca:	4b05      	ldr	r3, [pc, #20]	; (80000e0 <__do_global_dtors_aux+0x20>)
 80000cc:	2b00      	cmp	r3, #0
 80000ce:	d002      	beq.n	80000d6 <__do_global_dtors_aux+0x16>
 80000d0:	4804      	ldr	r0, [pc, #16]	; (80000e4 <__do_global_dtors_aux+0x24>)
 80000d2:	e000      	b.n	80000d6 <__do_global_dtors_aux+0x16>
 80000d4:	bf00      	nop
 80000d6:	2301      	movs	r3, #1
 80000d8:	7023      	strb	r3, [r4, #0]
 80000da:	bd10      	pop	{r4, pc}
 80000dc:	20000010 	.word	0x20000010
 80000e0:	00000000 	.word	0x00000000
 80000e4:	0800219c 	.word	0x0800219c

080000e8 <frame_dummy>:
 80000e8:	4b04      	ldr	r3, [pc, #16]	; (80000fc <frame_dummy+0x14>)
 80000ea:	b510      	push	{r4, lr}
 80000ec:	2b00      	cmp	r3, #0
 80000ee:	d003      	beq.n	80000f8 <frame_dummy+0x10>
 80000f0:	4903      	ldr	r1, [pc, #12]	; (8000100 <frame_dummy+0x18>)
 80000f2:	4804      	ldr	r0, [pc, #16]	; (8000104 <frame_dummy+0x1c>)
 80000f4:	e000      	b.n	80000f8 <frame_dummy+0x10>
 80000f6:	bf00      	nop
 80000f8:	bd10      	pop	{r4, pc}
 80000fa:	46c0      	nop			; (mov r8, r8)
 80000fc:	00000000 	.word	0x00000000
 8000100:	20000014 	.word	0x20000014
 8000104:	0800219c 	.word	0x0800219c

08000108 <__gnu_thumb1_case_sqi>:
 8000108:	b402      	push	{r1}
 800010a:	4671      	mov	r1, lr
 800010c:	0849      	lsrs	r1, r1, #1
 800010e:	0049      	lsls	r1, r1, #1
 8000110:	5609      	ldrsb	r1, [r1, r0]
 8000112:	0049      	lsls	r1, r1, #1
 8000114:	448e      	add	lr, r1
 8000116:	bc02      	pop	{r1}
 8000118:	4770      	bx	lr
 800011a:	46c0      	nop			; (mov r8, r8)

0800011c <__gnu_thumb1_case_uqi>:
 800011c:	b402      	push	{r1}
 800011e:	4671      	mov	r1, lr
 8000120:	0849      	lsrs	r1, r1, #1
 8000122:	0049      	lsls	r1, r1, #1
 8000124:	5c09      	ldrb	r1, [r1, r0]
 8000126:	0049      	lsls	r1, r1, #1
 8000128:	448e      	add	lr, r1
 800012a:	bc02      	pop	{r1}
 800012c:	4770      	bx	lr
 800012e:	46c0      	nop			; (mov r8, r8)

08000130 <__udivsi3>:
 8000130:	2200      	movs	r2, #0
 8000132:	0843      	lsrs	r3, r0, #1
 8000134:	428b      	cmp	r3, r1
 8000136:	d374      	bcc.n	8000222 <__udivsi3+0xf2>
 8000138:	0903      	lsrs	r3, r0, #4
 800013a:	428b      	cmp	r3, r1
 800013c:	d35f      	bcc.n	80001fe <__udivsi3+0xce>
 800013e:	0a03      	lsrs	r3, r0, #8
 8000140:	428b      	cmp	r3, r1
 8000142:	d344      	bcc.n	80001ce <__udivsi3+0x9e>
 8000144:	0b03      	lsrs	r3, r0, #12
 8000146:	428b      	cmp	r3, r1
 8000148:	d328      	bcc.n	800019c <__udivsi3+0x6c>
 800014a:	0c03      	lsrs	r3, r0, #16
 800014c:	428b      	cmp	r3, r1
 800014e:	d30d      	bcc.n	800016c <__udivsi3+0x3c>
 8000150:	22ff      	movs	r2, #255	; 0xff
 8000152:	0209      	lsls	r1, r1, #8
 8000154:	ba12      	rev	r2, r2
 8000156:	0c03      	lsrs	r3, r0, #16
 8000158:	428b      	cmp	r3, r1
 800015a:	d302      	bcc.n	8000162 <__udivsi3+0x32>
 800015c:	1212      	asrs	r2, r2, #8
 800015e:	0209      	lsls	r1, r1, #8
 8000160:	d065      	beq.n	800022e <__udivsi3+0xfe>
 8000162:	0b03      	lsrs	r3, r0, #12
 8000164:	428b      	cmp	r3, r1
 8000166:	d319      	bcc.n	800019c <__udivsi3+0x6c>
 8000168:	e000      	b.n	800016c <__udivsi3+0x3c>
 800016a:	0a09      	lsrs	r1, r1, #8
 800016c:	0bc3      	lsrs	r3, r0, #15
 800016e:	428b      	cmp	r3, r1
 8000170:	d301      	bcc.n	8000176 <__udivsi3+0x46>
 8000172:	03cb      	lsls	r3, r1, #15
 8000174:	1ac0      	subs	r0, r0, r3
 8000176:	4152      	adcs	r2, r2
 8000178:	0b83      	lsrs	r3, r0, #14
 800017a:	428b      	cmp	r3, r1
 800017c:	d301      	bcc.n	8000182 <__udivsi3+0x52>
 800017e:	038b      	lsls	r3, r1, #14
 8000180:	1ac0      	subs	r0, r0, r3
 8000182:	4152      	adcs	r2, r2
 8000184:	0b43      	lsrs	r3, r0, #13
 8000186:	428b      	cmp	r3, r1
 8000188:	d301      	bcc.n	800018e <__udivsi3+0x5e>
 800018a:	034b      	lsls	r3, r1, #13
 800018c:	1ac0      	subs	r0, r0, r3
 800018e:	4152      	adcs	r2, r2
 8000190:	0b03      	lsrs	r3, r0, #12
 8000192:	428b      	cmp	r3, r1
 8000194:	d301      	bcc.n	800019a <__udivsi3+0x6a>
 8000196:	030b      	lsls	r3, r1, #12
 8000198:	1ac0      	subs	r0, r0, r3
 800019a:	4152      	adcs	r2, r2
 800019c:	0ac3      	lsrs	r3, r0, #11
 800019e:	428b      	cmp	r3, r1
 80001a0:	d301      	bcc.n	80001a6 <__udivsi3+0x76>
 80001a2:	02cb      	lsls	r3, r1, #11
 80001a4:	1ac0      	subs	r0, r0, r3
 80001a6:	4152      	adcs	r2, r2
 80001a8:	0a83      	lsrs	r3, r0, #10
 80001aa:	428b      	cmp	r3, r1
 80001ac:	d301      	bcc.n	80001b2 <__udivsi3+0x82>
 80001ae:	028b      	lsls	r3, r1, #10
 80001b0:	1ac0      	subs	r0, r0, r3
 80001b2:	4152      	adcs	r2, r2
 80001b4:	0a43      	lsrs	r3, r0, #9
 80001b6:	428b      	cmp	r3, r1
 80001b8:	d301      	bcc.n	80001be <__udivsi3+0x8e>
 80001ba:	024b      	lsls	r3, r1, #9
 80001bc:	1ac0      	subs	r0, r0, r3
 80001be:	4152      	adcs	r2, r2
 80001c0:	0a03      	lsrs	r3, r0, #8
 80001c2:	428b      	cmp	r3, r1
 80001c4:	d301      	bcc.n	80001ca <__udivsi3+0x9a>
 80001c6:	020b      	lsls	r3, r1, #8
 80001c8:	1ac0      	subs	r0, r0, r3
 80001ca:	4152      	adcs	r2, r2
 80001cc:	d2cd      	bcs.n	800016a <__udivsi3+0x3a>
 80001ce:	09c3      	lsrs	r3, r0, #7
 80001d0:	428b      	cmp	r3, r1
 80001d2:	d301      	bcc.n	80001d8 <__udivsi3+0xa8>
 80001d4:	01cb      	lsls	r3, r1, #7
 80001d6:	1ac0      	subs	r0, r0, r3
 80001d8:	4152      	adcs	r2, r2
 80001da:	0983      	lsrs	r3, r0, #6
 80001dc:	428b      	cmp	r3, r1
 80001de:	d301      	bcc.n	80001e4 <__udivsi3+0xb4>
 80001e0:	018b      	lsls	r3, r1, #6
 80001e2:	1ac0      	subs	r0, r0, r3
 80001e4:	4152      	adcs	r2, r2
 80001e6:	0943      	lsrs	r3, r0, #5
 80001e8:	428b      	cmp	r3, r1
 80001ea:	d301      	bcc.n	80001f0 <__udivsi3+0xc0>
 80001ec:	014b      	lsls	r3, r1, #5
 80001ee:	1ac0      	subs	r0, r0, r3
 80001f0:	4152      	adcs	r2, r2
 80001f2:	0903      	lsrs	r3, r0, #4
 80001f4:	428b      	cmp	r3, r1
 80001f6:	d301      	bcc.n	80001fc <__udivsi3+0xcc>
 80001f8:	010b      	lsls	r3, r1, #4
 80001fa:	1ac0      	subs	r0, r0, r3
 80001fc:	4152      	adcs	r2, r2
 80001fe:	08c3      	lsrs	r3, r0, #3
 8000200:	428b      	cmp	r3, r1
 8000202:	d301      	bcc.n	8000208 <__udivsi3+0xd8>
 8000204:	00cb      	lsls	r3, r1, #3
 8000206:	1ac0      	subs	r0, r0, r3
 8000208:	4152      	adcs	r2, r2
 800020a:	0883      	lsrs	r3, r0, #2
 800020c:	428b      	cmp	r3, r1
 800020e:	d301      	bcc.n	8000214 <__udivsi3+0xe4>
 8000210:	008b      	lsls	r3, r1, #2
 8000212:	1ac0      	subs	r0, r0, r3
 8000214:	4152      	adcs	r2, r2
 8000216:	0843      	lsrs	r3, r0, #1
 8000218:	428b      	cmp	r3, r1
 800021a:	d301      	bcc.n	8000220 <__udivsi3+0xf0>
 800021c:	004b      	lsls	r3, r1, #1
 800021e:	1ac0      	subs	r0, r0, r3
 8000220:	4152      	adcs	r2, r2
 8000222:	1a41      	subs	r1, r0, r1
 8000224:	d200      	bcs.n	8000228 <__udivsi3+0xf8>
 8000226:	4601      	mov	r1, r0
 8000228:	4152      	adcs	r2, r2
 800022a:	4610      	mov	r0, r2
 800022c:	4770      	bx	lr
 800022e:	e7ff      	b.n	8000230 <__udivsi3+0x100>
 8000230:	b501      	push	{r0, lr}
 8000232:	2000      	movs	r0, #0
 8000234:	f000 f806 	bl	8000244 <__aeabi_idiv0>
 8000238:	bd02      	pop	{r1, pc}
 800023a:	46c0      	nop			; (mov r8, r8)

0800023c <__aeabi_uidivmod>:
 800023c:	2900      	cmp	r1, #0
 800023e:	d0f7      	beq.n	8000230 <__udivsi3+0x100>
 8000240:	e776      	b.n	8000130 <__udivsi3>
 8000242:	4770      	bx	lr

08000244 <__aeabi_idiv0>:
 8000244:	4770      	bx	lr
 8000246:	46c0      	nop			; (mov r8, r8)

08000248 <SystemClock_Config>:
 8000248:	b510      	push	{r4, lr}
 800024a:	2410      	movs	r4, #16
 800024c:	b094      	sub	sp, #80	; 0x50
 800024e:	222c      	movs	r2, #44	; 0x2c
 8000250:	2100      	movs	r1, #0
 8000252:	a809      	add	r0, sp, #36	; 0x24
 8000254:	f001 ff99 	bl	800218a <memset>
 8000258:	0022      	movs	r2, r4
 800025a:	2100      	movs	r1, #0
 800025c:	4668      	mov	r0, sp
 800025e:	f001 ff94 	bl	800218a <memset>
 8000262:	0022      	movs	r2, r4
 8000264:	2100      	movs	r1, #0
 8000266:	a804      	add	r0, sp, #16
 8000268:	f001 ff8f 	bl	800218a <memset>
 800026c:	230a      	movs	r3, #10
 800026e:	9308      	str	r3, [sp, #32]
 8000270:	3b09      	subs	r3, #9
 8000272:	930b      	str	r3, [sp, #44]	; 0x2c
 8000274:	930f      	str	r3, [sp, #60]	; 0x3c
 8000276:	23c0      	movs	r3, #192	; 0xc0
 8000278:	940c      	str	r4, [sp, #48]	; 0x30
 800027a:	031b      	lsls	r3, r3, #12
 800027c:	3c0e      	subs	r4, #14
 800027e:	a808      	add	r0, sp, #32
 8000280:	9410      	str	r4, [sp, #64]	; 0x40
 8000282:	9312      	str	r3, [sp, #72]	; 0x48
 8000284:	f000 fd3e 	bl	8000d04 <HAL_RCC_OscConfig>
 8000288:	1e01      	subs	r1, r0, #0
 800028a:	d001      	beq.n	8000290 <SystemClock_Config+0x48>
 800028c:	b672      	cpsid	i
 800028e:	e7fe      	b.n	800028e <SystemClock_Config+0x46>
 8000290:	2307      	movs	r3, #7
 8000292:	9002      	str	r0, [sp, #8]
 8000294:	9003      	str	r0, [sp, #12]
 8000296:	4668      	mov	r0, sp
 8000298:	9300      	str	r3, [sp, #0]
 800029a:	9401      	str	r4, [sp, #4]
 800029c:	f000 ff6a 	bl	8001174 <HAL_RCC_ClockConfig>
 80002a0:	2800      	cmp	r0, #0
 80002a2:	d001      	beq.n	80002a8 <SystemClock_Config+0x60>
 80002a4:	b672      	cpsid	i
 80002a6:	e7fe      	b.n	80002a6 <SystemClock_Config+0x5e>
 80002a8:	4b07      	ldr	r3, [pc, #28]	; (80002c8 <SystemClock_Config+0x80>)
 80002aa:	9006      	str	r0, [sp, #24]
 80002ac:	9304      	str	r3, [sp, #16]
 80002ae:	2380      	movs	r3, #128	; 0x80
 80002b0:	a804      	add	r0, sp, #16
 80002b2:	009b      	lsls	r3, r3, #2
 80002b4:	9305      	str	r3, [sp, #20]
 80002b6:	f000 fff1 	bl	800129c <HAL_RCCEx_PeriphCLKConfig>
 80002ba:	2800      	cmp	r0, #0
 80002bc:	d001      	beq.n	80002c2 <SystemClock_Config+0x7a>
 80002be:	b672      	cpsid	i
 80002c0:	e7fe      	b.n	80002c0 <SystemClock_Config+0x78>
 80002c2:	b014      	add	sp, #80	; 0x50
 80002c4:	bd10      	pop	{r4, pc}
 80002c6:	46c0      	nop			; (mov r8, r8)
 80002c8:	00010001 	.word	0x00010001

080002cc <setPixelColor>:
 80002cc:	b5f0      	push	{r4, r5, r6, r7, lr}
 80002ce:	2780      	movs	r7, #128	; 0x80
 80002d0:	2680      	movs	r6, #128	; 0x80
 80002d2:	b087      	sub	sp, #28
 80002d4:	0336      	lsls	r6, r6, #12
 80002d6:	9005      	str	r0, [sp, #20]
 80002d8:	03ff      	lsls	r7, r7, #15
 80002da:	03c8      	lsls	r0, r1, #15
 80002dc:	034d      	lsls	r5, r1, #13
 80002de:	4035      	ands	r5, r6
 80002e0:	4038      	ands	r0, r7
 80002e2:	4328      	orrs	r0, r5
 80002e4:	2580      	movs	r5, #128	; 0x80
 80002e6:	02cc      	lsls	r4, r1, #11
 80002e8:	026d      	lsls	r5, r5, #9
 80002ea:	402c      	ands	r4, r5
 80002ec:	2580      	movs	r5, #128	; 0x80
 80002ee:	4320      	orrs	r0, r4
 80002f0:	01ad      	lsls	r5, r5, #6
 80002f2:	024c      	lsls	r4, r1, #9
 80002f4:	402c      	ands	r4, r5
 80002f6:	2580      	movs	r5, #128	; 0x80
 80002f8:	4304      	orrs	r4, r0
 80002fa:	00ed      	lsls	r5, r5, #3
 80002fc:	01c8      	lsls	r0, r1, #7
 80002fe:	4028      	ands	r0, r5
 8000300:	2580      	movs	r5, #128	; 0x80
 8000302:	4304      	orrs	r4, r0
 8000304:	0148      	lsls	r0, r1, #5
 8000306:	4028      	ands	r0, r5
 8000308:	4320      	orrs	r0, r4
 800030a:	00cc      	lsls	r4, r1, #3
 800030c:	46a4      	mov	ip, r4
 800030e:	2410      	movs	r4, #16
 8000310:	4665      	mov	r5, ip
 8000312:	4025      	ands	r5, r4
 8000314:	4305      	orrs	r5, r0
 8000316:	2002      	movs	r0, #2
 8000318:	0049      	lsls	r1, r1, #1
 800031a:	4684      	mov	ip, r0
 800031c:	4001      	ands	r1, r0
 800031e:	0028      	movs	r0, r5
 8000320:	9501      	str	r5, [sp, #4]
 8000322:	2580      	movs	r5, #128	; 0x80
 8000324:	4308      	orrs	r0, r1
 8000326:	9002      	str	r0, [sp, #8]
 8000328:	0351      	lsls	r1, r2, #13
 800032a:	03d0      	lsls	r0, r2, #15
 800032c:	4031      	ands	r1, r6
 800032e:	4038      	ands	r0, r7
 8000330:	4308      	orrs	r0, r1
 8000332:	026d      	lsls	r5, r5, #9
 8000334:	02d1      	lsls	r1, r2, #11
 8000336:	4029      	ands	r1, r5
 8000338:	2580      	movs	r5, #128	; 0x80
 800033a:	4308      	orrs	r0, r1
 800033c:	01ad      	lsls	r5, r5, #6
 800033e:	0251      	lsls	r1, r2, #9
 8000340:	4029      	ands	r1, r5
 8000342:	2580      	movs	r5, #128	; 0x80
 8000344:	4301      	orrs	r1, r0
 8000346:	00ed      	lsls	r5, r5, #3
 8000348:	01d0      	lsls	r0, r2, #7
 800034a:	4028      	ands	r0, r5
 800034c:	2580      	movs	r5, #128	; 0x80
 800034e:	4301      	orrs	r1, r0
 8000350:	0150      	lsls	r0, r2, #5
 8000352:	4028      	ands	r0, r5
 8000354:	4308      	orrs	r0, r1
 8000356:	00d1      	lsls	r1, r2, #3
 8000358:	4021      	ands	r1, r4
 800035a:	4301      	orrs	r1, r0
 800035c:	4660      	mov	r0, ip
 800035e:	0052      	lsls	r2, r2, #1
 8000360:	4002      	ands	r2, r0
 8000362:	430a      	orrs	r2, r1
 8000364:	9203      	str	r2, [sp, #12]
 8000366:	03da      	lsls	r2, r3, #15
 8000368:	4017      	ands	r7, r2
 800036a:	035a      	lsls	r2, r3, #13
 800036c:	4032      	ands	r2, r6
 800036e:	4317      	orrs	r7, r2
 8000370:	2280      	movs	r2, #128	; 0x80
 8000372:	2580      	movs	r5, #128	; 0x80
 8000374:	02d8      	lsls	r0, r3, #11
 8000376:	0252      	lsls	r2, r2, #9
 8000378:	4010      	ands	r0, r2
 800037a:	01ad      	lsls	r5, r5, #6
 800037c:	025a      	lsls	r2, r3, #9
 800037e:	402a      	ands	r2, r5
 8000380:	2580      	movs	r5, #128	; 0x80
 8000382:	01de      	lsls	r6, r3, #7
 8000384:	00ed      	lsls	r5, r5, #3
 8000386:	402e      	ands	r6, r5
 8000388:	2580      	movs	r5, #128	; 0x80
 800038a:	4307      	orrs	r7, r0
 800038c:	4317      	orrs	r7, r2
 800038e:	00da      	lsls	r2, r3, #3
 8000390:	4014      	ands	r4, r2
 8000392:	4662      	mov	r2, ip
 8000394:	0158      	lsls	r0, r3, #5
 8000396:	4028      	ands	r0, r5
 8000398:	4337      	orrs	r7, r6
 800039a:	2609      	movs	r6, #9
 800039c:	4307      	orrs	r7, r0
 800039e:	433c      	orrs	r4, r7
 80003a0:	276e      	movs	r7, #110	; 0x6e
 80003a2:	2049      	movs	r0, #73	; 0x49
 80003a4:	005b      	lsls	r3, r3, #1
 80003a6:	4013      	ands	r3, r2
 80003a8:	4323      	orrs	r3, r4
 80003aa:	9304      	str	r3, [sp, #16]
 80003ac:	9b05      	ldr	r3, [sp, #20]
 80003ae:	4d19      	ldr	r5, [pc, #100]	; (8000414 <setPixelColor+0x148>)
 80003b0:	435e      	muls	r6, r3
 80003b2:	427f      	negs	r7, r7
 80003b4:	0c0a      	lsrs	r2, r1, #16
 80003b6:	433a      	orrs	r2, r7
 80003b8:	55aa      	strb	r2, [r5, r6]
 80003ba:	0a09      	lsrs	r1, r1, #8
 80003bc:	1c72      	adds	r2, r6, #1
 80003be:	4301      	orrs	r1, r0
 80003c0:	b292      	uxth	r2, r2
 80003c2:	54a9      	strb	r1, [r5, r2]
 80003c4:	2124      	movs	r1, #36	; 0x24
 80003c6:	9b03      	ldr	r3, [sp, #12]
 80003c8:	1cb2      	adds	r2, r6, #2
 80003ca:	430b      	orrs	r3, r1
 80003cc:	b292      	uxth	r2, r2
 80003ce:	54ab      	strb	r3, [r5, r2]
 80003d0:	9b01      	ldr	r3, [sp, #4]
 80003d2:	1cf2      	adds	r2, r6, #3
 80003d4:	0c1b      	lsrs	r3, r3, #16
 80003d6:	433b      	orrs	r3, r7
 80003d8:	b292      	uxth	r2, r2
 80003da:	54ab      	strb	r3, [r5, r2]
 80003dc:	9b01      	ldr	r3, [sp, #4]
 80003de:	1d32      	adds	r2, r6, #4
 80003e0:	0a1b      	lsrs	r3, r3, #8
 80003e2:	4303      	orrs	r3, r0
 80003e4:	b292      	uxth	r2, r2
 80003e6:	54ab      	strb	r3, [r5, r2]
 80003e8:	9b02      	ldr	r3, [sp, #8]
 80003ea:	1d72      	adds	r2, r6, #5
 80003ec:	430b      	orrs	r3, r1
 80003ee:	b292      	uxth	r2, r2
 80003f0:	54ab      	strb	r3, [r5, r2]
 80003f2:	0c23      	lsrs	r3, r4, #16
 80003f4:	1db2      	adds	r2, r6, #6
 80003f6:	431f      	orrs	r7, r3
 80003f8:	b292      	uxth	r2, r2
 80003fa:	9b04      	ldr	r3, [sp, #16]
 80003fc:	54af      	strb	r7, [r5, r2]
 80003fe:	0a24      	lsrs	r4, r4, #8
 8000400:	1df2      	adds	r2, r6, #7
 8000402:	3608      	adds	r6, #8
 8000404:	b292      	uxth	r2, r2
 8000406:	4320      	orrs	r0, r4
 8000408:	b2b6      	uxth	r6, r6
 800040a:	430b      	orrs	r3, r1
 800040c:	54a8      	strb	r0, [r5, r2]
 800040e:	55ab      	strb	r3, [r5, r6]
 8000410:	b007      	add	sp, #28
 8000412:	bdf0      	pop	{r4, r5, r6, r7, pc}
 8000414:	2000002e 	.word	0x2000002e

08000418 <main>:
 8000418:	b5f0      	push	{r4, r5, r6, r7, lr}
 800041a:	b095      	sub	sp, #84	; 0x54
 800041c:	f000 fa6e 	bl	80008fc <HAL_Init>
 8000420:	f7ff ff12 	bl	8000248 <SystemClock_Config>
 8000424:	2214      	movs	r2, #20
 8000426:	2100      	movs	r1, #0
 8000428:	a80a      	add	r0, sp, #40	; 0x28
 800042a:	f001 feae 	bl	800218a <memset>
 800042e:	2180      	movs	r1, #128	; 0x80
 8000430:	4c86      	ldr	r4, [pc, #536]	; (800064c <main+0x234>)
 8000432:	03c9      	lsls	r1, r1, #15
 8000434:	6962      	ldr	r2, [r4, #20]
 8000436:	2700      	movs	r7, #0
 8000438:	430a      	orrs	r2, r1
 800043a:	6162      	str	r2, [r4, #20]
 800043c:	6963      	ldr	r3, [r4, #20]
 800043e:	2601      	movs	r6, #1
 8000440:	400b      	ands	r3, r1
 8000442:	2180      	movs	r1, #128	; 0x80
 8000444:	9302      	str	r3, [sp, #8]
 8000446:	9b02      	ldr	r3, [sp, #8]
 8000448:	6962      	ldr	r2, [r4, #20]
 800044a:	0289      	lsls	r1, r1, #10
 800044c:	430a      	orrs	r2, r1
 800044e:	6162      	str	r2, [r4, #20]
 8000450:	6963      	ldr	r3, [r4, #20]
 8000452:	2508      	movs	r5, #8
 8000454:	400b      	ands	r3, r1
 8000456:	2180      	movs	r1, #128	; 0x80
 8000458:	9303      	str	r3, [sp, #12]
 800045a:	9b03      	ldr	r3, [sp, #12]
 800045c:	6962      	ldr	r2, [r4, #20]
 800045e:	02c9      	lsls	r1, r1, #11
 8000460:	430a      	orrs	r2, r1
 8000462:	6162      	str	r2, [r4, #20]
 8000464:	6963      	ldr	r3, [r4, #20]
 8000466:	2200      	movs	r2, #0
 8000468:	400b      	ands	r3, r1
 800046a:	4879      	ldr	r0, [pc, #484]	; (8000650 <main+0x238>)
 800046c:	2108      	movs	r1, #8
 800046e:	9304      	str	r3, [sp, #16]
 8000470:	9b04      	ldr	r3, [sp, #16]
 8000472:	f000 fc41 	bl	8000cf8 <HAL_GPIO_WritePin>
 8000476:	4876      	ldr	r0, [pc, #472]	; (8000650 <main+0x238>)
 8000478:	a90a      	add	r1, sp, #40	; 0x28
 800047a:	950a      	str	r5, [sp, #40]	; 0x28
 800047c:	960b      	str	r6, [sp, #44]	; 0x2c
 800047e:	970c      	str	r7, [sp, #48]	; 0x30
 8000480:	970d      	str	r7, [sp, #52]	; 0x34
 8000482:	f000 fb89 	bl	8000b98 <HAL_GPIO_Init>
 8000486:	6963      	ldr	r3, [r4, #20]
 8000488:	003a      	movs	r2, r7
 800048a:	4333      	orrs	r3, r6
 800048c:	6163      	str	r3, [r4, #20]
 800048e:	6963      	ldr	r3, [r4, #20]
 8000490:	0039      	movs	r1, r7
 8000492:	4033      	ands	r3, r6
 8000494:	200a      	movs	r0, #10
 8000496:	9301      	str	r3, [sp, #4]
 8000498:	9b01      	ldr	r3, [sp, #4]
 800049a:	f000 fa51 	bl	8000940 <HAL_NVIC_SetPriority>
 800049e:	200a      	movs	r0, #10
 80004a0:	f000 fa78 	bl	8000994 <HAL_NVIC_EnableIRQ>
 80004a4:	486b      	ldr	r0, [pc, #428]	; (8000654 <main+0x23c>)
 80004a6:	4b6c      	ldr	r3, [pc, #432]	; (8000658 <main+0x240>)
 80004a8:	6087      	str	r7, [r0, #8]
 80004aa:	6003      	str	r3, [r0, #0]
 80004ac:	2396      	movs	r3, #150	; 0x96
 80004ae:	021b      	lsls	r3, r3, #8
 80004b0:	6043      	str	r3, [r0, #4]
 80004b2:	230c      	movs	r3, #12
 80004b4:	60c7      	str	r7, [r0, #12]
 80004b6:	6107      	str	r7, [r0, #16]
 80004b8:	6143      	str	r3, [r0, #20]
 80004ba:	6187      	str	r7, [r0, #24]
 80004bc:	61c7      	str	r7, [r0, #28]
 80004be:	6207      	str	r7, [r0, #32]
 80004c0:	6247      	str	r7, [r0, #36]	; 0x24
 80004c2:	f001 fe03 	bl	80020cc <HAL_UART_Init>
 80004c6:	42b8      	cmp	r0, r7
 80004c8:	d001      	beq.n	80004ce <main+0xb6>
 80004ca:	b672      	cpsid	i
 80004cc:	e7fe      	b.n	80004cc <main+0xb4>
 80004ce:	4c63      	ldr	r4, [pc, #396]	; (800065c <main+0x244>)
 80004d0:	4b63      	ldr	r3, [pc, #396]	; (8000660 <main+0x248>)
 80004d2:	60a0      	str	r0, [r4, #8]
 80004d4:	6023      	str	r3, [r4, #0]
 80004d6:	2382      	movs	r3, #130	; 0x82
 80004d8:	005b      	lsls	r3, r3, #1
 80004da:	6063      	str	r3, [r4, #4]
 80004dc:	23e0      	movs	r3, #224	; 0xe0
 80004de:	00db      	lsls	r3, r3, #3
 80004e0:	60e3      	str	r3, [r4, #12]
 80004e2:	2380      	movs	r3, #128	; 0x80
 80004e4:	009b      	lsls	r3, r3, #2
 80004e6:	61a3      	str	r3, [r4, #24]
 80004e8:	3bf1      	subs	r3, #241	; 0xf1
 80004ea:	3bff      	subs	r3, #255	; 0xff
 80004ec:	6120      	str	r0, [r4, #16]
 80004ee:	6160      	str	r0, [r4, #20]
 80004f0:	61e3      	str	r3, [r4, #28]
 80004f2:	6220      	str	r0, [r4, #32]
 80004f4:	6260      	str	r0, [r4, #36]	; 0x24
 80004f6:	62a0      	str	r0, [r4, #40]	; 0x28
 80004f8:	3b09      	subs	r3, #9
 80004fa:	6320      	str	r0, [r4, #48]	; 0x30
 80004fc:	0020      	movs	r0, r4
 80004fe:	62e3      	str	r3, [r4, #44]	; 0x2c
 8000500:	6365      	str	r5, [r4, #52]	; 0x34
 8000502:	f001 fa6d 	bl	80019e0 <HAL_SPI_Init>
 8000506:	1e07      	subs	r7, r0, #0
 8000508:	d001      	beq.n	800050e <main+0xf6>
 800050a:	b672      	cpsid	i
 800050c:	e7fe      	b.n	800050c <main+0xf4>
 800050e:	0001      	movs	r1, r0
 8000510:	2214      	movs	r2, #20
 8000512:	a805      	add	r0, sp, #20
 8000514:	f001 fe39 	bl	800218a <memset>
 8000518:	2228      	movs	r2, #40	; 0x28
 800051a:	0039      	movs	r1, r7
 800051c:	a80a      	add	r0, sp, #40	; 0x28
 800051e:	9700      	str	r7, [sp, #0]
 8000520:	f001 fe33 	bl	800218a <memset>
 8000524:	4d4f      	ldr	r5, [pc, #316]	; (8000664 <main+0x24c>)
 8000526:	4b50      	ldr	r3, [pc, #320]	; (8000668 <main+0x250>)
 8000528:	0028      	movs	r0, r5
 800052a:	602b      	str	r3, [r5, #0]
 800052c:	237f      	movs	r3, #127	; 0x7f
 800052e:	60ab      	str	r3, [r5, #8]
 8000530:	3380      	adds	r3, #128	; 0x80
 8000532:	606f      	str	r7, [r5, #4]
 8000534:	60eb      	str	r3, [r5, #12]
 8000536:	612f      	str	r7, [r5, #16]
 8000538:	616f      	str	r7, [r5, #20]
 800053a:	61af      	str	r7, [r5, #24]
 800053c:	f000 ff86 	bl	800144c <HAL_RTC_Init>
 8000540:	2800      	cmp	r0, #0
 8000542:	d001      	beq.n	8000548 <main+0x130>
 8000544:	b672      	cpsid	i
 8000546:	e7fe      	b.n	8000546 <main+0x12e>
 8000548:	466b      	mov	r3, sp
 800054a:	9008      	str	r0, [sp, #32]
 800054c:	8298      	strh	r0, [r3, #20]
 800054e:	7598      	strb	r0, [r3, #22]
 8000550:	9009      	str	r0, [sp, #36]	; 0x24
 8000552:	0032      	movs	r2, r6
 8000554:	0028      	movs	r0, r5
 8000556:	a905      	add	r1, sp, #20
 8000558:	f000 ffd8 	bl	800150c <HAL_RTC_SetTime>
 800055c:	2800      	cmp	r0, #0
 800055e:	d001      	beq.n	8000564 <main+0x14c>
 8000560:	b672      	cpsid	i
 8000562:	e7fe      	b.n	8000562 <main+0x14a>
 8000564:	466b      	mov	r3, sp
 8000566:	0032      	movs	r2, r6
 8000568:	70d8      	strb	r0, [r3, #3]
 800056a:	4669      	mov	r1, sp
 800056c:	0028      	movs	r0, r5
 800056e:	701e      	strb	r6, [r3, #0]
 8000570:	705e      	strb	r6, [r3, #1]
 8000572:	709e      	strb	r6, [r3, #2]
 8000574:	f001 f844 	bl	8001600 <HAL_RTC_SetDate>
 8000578:	2800      	cmp	r0, #0
 800057a:	d001      	beq.n	8000580 <main+0x168>
 800057c:	b672      	cpsid	i
 800057e:	e7fe      	b.n	800057e <main+0x166>
 8000580:	466b      	mov	r3, sp
 8000582:	222a      	movs	r2, #42	; 0x2a
 8000584:	8518      	strh	r0, [r3, #40]	; 0x28
 8000586:	189b      	adds	r3, r3, r2
 8000588:	7018      	strb	r0, [r3, #0]
 800058a:	4b38      	ldr	r3, [pc, #224]	; (800066c <main+0x254>)
 800058c:	900d      	str	r0, [sp, #52]	; 0x34
 800058e:	930f      	str	r3, [sp, #60]	; 0x3c
 8000590:	2380      	movs	r3, #128	; 0x80
 8000592:	04db      	lsls	r3, r3, #19
 8000594:	9310      	str	r3, [sp, #64]	; 0x40
 8000596:	2329      	movs	r3, #41	; 0x29
 8000598:	446b      	add	r3, sp
 800059a:	900e      	str	r0, [sp, #56]	; 0x38
 800059c:	9011      	str	r0, [sp, #68]	; 0x44
 800059e:	960b      	str	r6, [sp, #44]	; 0x2c
 80005a0:	77de      	strb	r6, [r3, #31]
 80005a2:	2380      	movs	r3, #128	; 0x80
 80005a4:	0032      	movs	r2, r6
 80005a6:	005b      	lsls	r3, r3, #1
 80005a8:	0028      	movs	r0, r5
 80005aa:	a90a      	add	r1, sp, #40	; 0x28
 80005ac:	9313      	str	r3, [sp, #76]	; 0x4c
 80005ae:	f001 f889 	bl	80016c4 <HAL_RTC_SetAlarm_IT>
 80005b2:	2800      	cmp	r0, #0
 80005b4:	d001      	beq.n	80005ba <main+0x1a2>
 80005b6:	b672      	cpsid	i
 80005b8:	e7fe      	b.n	80005b8 <main+0x1a0>
 80005ba:	26a2      	movs	r6, #162	; 0xa2
 80005bc:	2592      	movs	r5, #146	; 0x92
 80005be:	2149      	movs	r1, #73	; 0x49
 80005c0:	2224      	movs	r2, #36	; 0x24
 80005c2:	4b2b      	ldr	r3, [pc, #172]	; (8000670 <main+0x258>)
 80005c4:	00f6      	lsls	r6, r6, #3
 80005c6:	3009      	adds	r0, #9
 80005c8:	b280      	uxth	r0, r0
 80005ca:	701d      	strb	r5, [r3, #0]
 80005cc:	7059      	strb	r1, [r3, #1]
 80005ce:	709a      	strb	r2, [r3, #2]
 80005d0:	70dd      	strb	r5, [r3, #3]
 80005d2:	7119      	strb	r1, [r3, #4]
 80005d4:	715a      	strb	r2, [r3, #5]
 80005d6:	719d      	strb	r5, [r3, #6]
 80005d8:	71d9      	strb	r1, [r3, #7]
 80005da:	721a      	strb	r2, [r3, #8]
 80005dc:	3309      	adds	r3, #9
 80005de:	42b0      	cmp	r0, r6
 80005e0:	d1f1      	bne.n	80005c6 <main+0x1ae>
 80005e2:	2601      	movs	r6, #1
 80005e4:	4f23      	ldr	r7, [pc, #140]	; (8000674 <main+0x25c>)
 80005e6:	783b      	ldrb	r3, [r7, #0]
 80005e8:	b2dd      	uxtb	r5, r3
 80005ea:	2b00      	cmp	r3, #0
 80005ec:	d1fb      	bne.n	80005e6 <main+0x1ce>
 80005ee:	0032      	movs	r2, r6
 80005f0:	2108      	movs	r1, #8
 80005f2:	4817      	ldr	r0, [pc, #92]	; (8000650 <main+0x238>)
 80005f4:	f000 fb80 	bl	8000cf8 <HAL_GPIO_WritePin>
 80005f8:	703e      	strb	r6, [r7, #0]
 80005fa:	2707      	movs	r7, #7
 80005fc:	2212      	movs	r2, #18
 80005fe:	4b1e      	ldr	r3, [pc, #120]	; (8000678 <main+0x260>)
 8000600:	481e      	ldr	r0, [pc, #120]	; (800067c <main+0x264>)
 8000602:	7819      	ldrb	r1, [r3, #0]
 8000604:	08eb      	lsrs	r3, r5, #3
 8000606:	4351      	muls	r1, r2
 8000608:	4a1d      	ldr	r2, [pc, #116]	; (8000680 <main+0x268>)
 800060a:	1852      	adds	r2, r2, r1
 800060c:	0029      	movs	r1, r5
 800060e:	5cd2      	ldrb	r2, [r2, r3]
 8000610:	2380      	movs	r3, #128	; 0x80
 8000612:	4039      	ands	r1, r7
 8000614:	410b      	asrs	r3, r1
 8000616:	2103      	movs	r1, #3
 8000618:	4213      	tst	r3, r2
 800061a:	d014      	beq.n	8000646 <main+0x22e>
 800061c:	4b19      	ldr	r3, [pc, #100]	; (8000684 <main+0x26c>)
 800061e:	781b      	ldrb	r3, [r3, #0]
 8000620:	4359      	muls	r1, r3
 8000622:	1842      	adds	r2, r0, r1
 8000624:	5c41      	ldrb	r1, [r0, r1]
 8000626:	0028      	movs	r0, r5
 8000628:	3501      	adds	r5, #1
 800062a:	7893      	ldrb	r3, [r2, #2]
 800062c:	b2ed      	uxtb	r5, r5
 800062e:	7852      	ldrb	r2, [r2, #1]
 8000630:	f7ff fe4c 	bl	80002cc <setPixelColor>
 8000634:	2d90      	cmp	r5, #144	; 0x90
 8000636:	d1e1      	bne.n	80005fc <main+0x1e4>
 8000638:	22a2      	movs	r2, #162	; 0xa2
 800063a:	0020      	movs	r0, r4
 800063c:	490c      	ldr	r1, [pc, #48]	; (8000670 <main+0x258>)
 800063e:	00d2      	lsls	r2, r2, #3
 8000640:	f001 fa46 	bl	8001ad0 <HAL_SPI_Transmit_DMA>
 8000644:	e7ce      	b.n	80005e4 <main+0x1cc>
 8000646:	4b10      	ldr	r3, [pc, #64]	; (8000688 <main+0x270>)
 8000648:	e7e9      	b.n	800061e <main+0x206>
 800064a:	46c0      	nop			; (mov r8, r8)
 800064c:	40021000 	.word	0x40021000
 8000650:	48000400 	.word	0x48000400
 8000654:	20000608 	.word	0x20000608
 8000658:	40013800 	.word	0x40013800
 800065c:	200005a4 	.word	0x200005a4
 8000660:	40013000 	.word	0x40013000
 8000664:	20000584 	.word	0x20000584
 8000668:	40002800 	.word	0x40002800
 800066c:	80808080 	.word	0x80808080
 8000670:	2000002e 	.word	0x2000002e
 8000674:	2000068c 	.word	0x2000068c
 8000678:	2000002d 	.word	0x2000002d
 800067c:	080021b4 	.word	0x080021b4
 8000680:	080021c3 	.word	0x080021c3
 8000684:	20000000 	.word	0x20000000
 8000688:	2000002c 	.word	0x2000002c

0800068c <HAL_SPI_TxCpltCallback>:
 800068c:	b510      	push	{r4, lr}
 800068e:	2200      	movs	r2, #0
 8000690:	2108      	movs	r1, #8
 8000692:	4802      	ldr	r0, [pc, #8]	; (800069c <HAL_SPI_TxCpltCallback+0x10>)
 8000694:	f000 fb30 	bl	8000cf8 <HAL_GPIO_WritePin>
 8000698:	bd10      	pop	{r4, pc}
 800069a:	46c0      	nop			; (mov r8, r8)
 800069c:	48000400 	.word	0x48000400

080006a0 <HAL_RTC_AlarmAEventCallback>:
 80006a0:	2200      	movs	r2, #0
 80006a2:	4b01      	ldr	r3, [pc, #4]	; (80006a8 <HAL_RTC_AlarmAEventCallback+0x8>)
 80006a4:	701a      	strb	r2, [r3, #0]
 80006a6:	4770      	bx	lr
 80006a8:	2000068c 	.word	0x2000068c

080006ac <Error_Handler>:
 80006ac:	b672      	cpsid	i
 80006ae:	e7fe      	b.n	80006ae <Error_Handler+0x2>

080006b0 <HAL_MspInit>:
 80006b0:	2001      	movs	r0, #1
 80006b2:	4b0a      	ldr	r3, [pc, #40]	; (80006dc <HAL_MspInit+0x2c>)
 80006b4:	b082      	sub	sp, #8
 80006b6:	6999      	ldr	r1, [r3, #24]
 80006b8:	4301      	orrs	r1, r0
 80006ba:	6199      	str	r1, [r3, #24]
 80006bc:	2180      	movs	r1, #128	; 0x80
 80006be:	699a      	ldr	r2, [r3, #24]
 80006c0:	0549      	lsls	r1, r1, #21
 80006c2:	4002      	ands	r2, r0
 80006c4:	9200      	str	r2, [sp, #0]
 80006c6:	9a00      	ldr	r2, [sp, #0]
 80006c8:	69da      	ldr	r2, [r3, #28]
 80006ca:	430a      	orrs	r2, r1
 80006cc:	61da      	str	r2, [r3, #28]
 80006ce:	69db      	ldr	r3, [r3, #28]
 80006d0:	400b      	ands	r3, r1
 80006d2:	9301      	str	r3, [sp, #4]
 80006d4:	9b01      	ldr	r3, [sp, #4]
 80006d6:	b002      	add	sp, #8
 80006d8:	4770      	bx	lr
 80006da:	46c0      	nop			; (mov r8, r8)
 80006dc:	40021000 	.word	0x40021000

080006e0 <HAL_RTC_MspInit>:
 80006e0:	4b09      	ldr	r3, [pc, #36]	; (8000708 <HAL_RTC_MspInit+0x28>)
 80006e2:	6802      	ldr	r2, [r0, #0]
 80006e4:	b510      	push	{r4, lr}
 80006e6:	429a      	cmp	r2, r3
 80006e8:	d10d      	bne.n	8000706 <HAL_RTC_MspInit+0x26>
 80006ea:	2380      	movs	r3, #128	; 0x80
 80006ec:	4a07      	ldr	r2, [pc, #28]	; (800070c <HAL_RTC_MspInit+0x2c>)
 80006ee:	021b      	lsls	r3, r3, #8
 80006f0:	6a11      	ldr	r1, [r2, #32]
 80006f2:	2002      	movs	r0, #2
 80006f4:	430b      	orrs	r3, r1
 80006f6:	6213      	str	r3, [r2, #32]
 80006f8:	2200      	movs	r2, #0
 80006fa:	0011      	movs	r1, r2
 80006fc:	f000 f920 	bl	8000940 <HAL_NVIC_SetPriority>
 8000700:	2002      	movs	r0, #2
 8000702:	f000 f947 	bl	8000994 <HAL_NVIC_EnableIRQ>
 8000706:	bd10      	pop	{r4, pc}
 8000708:	40002800 	.word	0x40002800
 800070c:	40021000 	.word	0x40021000

08000710 <HAL_SPI_MspInit>:
 8000710:	b530      	push	{r4, r5, lr}
 8000712:	0005      	movs	r5, r0
 8000714:	b089      	sub	sp, #36	; 0x24
 8000716:	2214      	movs	r2, #20
 8000718:	2100      	movs	r1, #0
 800071a:	a803      	add	r0, sp, #12
 800071c:	f001 fd35 	bl	800218a <memset>
 8000720:	4b20      	ldr	r3, [pc, #128]	; (80007a4 <HAL_SPI_MspInit+0x94>)
 8000722:	682a      	ldr	r2, [r5, #0]
 8000724:	429a      	cmp	r2, r3
 8000726:	d13b      	bne.n	80007a0 <HAL_SPI_MspInit+0x90>
 8000728:	2080      	movs	r0, #128	; 0x80
 800072a:	4b1f      	ldr	r3, [pc, #124]	; (80007a8 <HAL_SPI_MspInit+0x98>)
 800072c:	0140      	lsls	r0, r0, #5
 800072e:	6999      	ldr	r1, [r3, #24]
 8000730:	4301      	orrs	r1, r0
 8000732:	6199      	str	r1, [r3, #24]
 8000734:	2180      	movs	r1, #128	; 0x80
 8000736:	699a      	ldr	r2, [r3, #24]
 8000738:	0289      	lsls	r1, r1, #10
 800073a:	4002      	ands	r2, r0
 800073c:	9201      	str	r2, [sp, #4]
 800073e:	9a01      	ldr	r2, [sp, #4]
 8000740:	695a      	ldr	r2, [r3, #20]
 8000742:	2090      	movs	r0, #144	; 0x90
 8000744:	430a      	orrs	r2, r1
 8000746:	615a      	str	r2, [r3, #20]
 8000748:	695b      	ldr	r3, [r3, #20]
 800074a:	05c0      	lsls	r0, r0, #23
 800074c:	400b      	ands	r3, r1
 800074e:	9302      	str	r3, [sp, #8]
 8000750:	9b02      	ldr	r3, [sp, #8]
 8000752:	23a0      	movs	r3, #160	; 0xa0
 8000754:	9303      	str	r3, [sp, #12]
 8000756:	3b9e      	subs	r3, #158	; 0x9e
 8000758:	9304      	str	r3, [sp, #16]
 800075a:	a903      	add	r1, sp, #12
 800075c:	3301      	adds	r3, #1
 800075e:	9306      	str	r3, [sp, #24]
 8000760:	f000 fa1a 	bl	8000b98 <HAL_GPIO_Init>
 8000764:	4c11      	ldr	r4, [pc, #68]	; (80007ac <HAL_SPI_MspInit+0x9c>)
 8000766:	4b12      	ldr	r3, [pc, #72]	; (80007b0 <HAL_SPI_MspInit+0xa0>)
 8000768:	2280      	movs	r2, #128	; 0x80
 800076a:	6023      	str	r3, [r4, #0]
 800076c:	2310      	movs	r3, #16
 800076e:	6063      	str	r3, [r4, #4]
 8000770:	2300      	movs	r3, #0
 8000772:	0020      	movs	r0, r4
 8000774:	60a3      	str	r3, [r4, #8]
 8000776:	60e2      	str	r2, [r4, #12]
 8000778:	6123      	str	r3, [r4, #16]
 800077a:	6163      	str	r3, [r4, #20]
 800077c:	61a3      	str	r3, [r4, #24]
 800077e:	61e3      	str	r3, [r4, #28]
 8000780:	f000 f92e 	bl	80009e0 <HAL_DMA_Init>
 8000784:	2800      	cmp	r0, #0
 8000786:	d001      	beq.n	800078c <HAL_SPI_MspInit+0x7c>
 8000788:	f7ff ff90 	bl	80006ac <Error_Handler>
 800078c:	2200      	movs	r2, #0
 800078e:	2019      	movs	r0, #25
 8000790:	0011      	movs	r1, r2
 8000792:	656c      	str	r4, [r5, #84]	; 0x54
 8000794:	6265      	str	r5, [r4, #36]	; 0x24
 8000796:	f000 f8d3 	bl	8000940 <HAL_NVIC_SetPriority>
 800079a:	2019      	movs	r0, #25
 800079c:	f000 f8fa 	bl	8000994 <HAL_NVIC_EnableIRQ>
 80007a0:	b009      	add	sp, #36	; 0x24
 80007a2:	bd30      	pop	{r4, r5, pc}
 80007a4:	40013000 	.word	0x40013000
 80007a8:	40021000 	.word	0x40021000
 80007ac:	20000540 	.word	0x20000540
 80007b0:	40020030 	.word	0x40020030

080007b4 <HAL_UART_MspInit>:
 80007b4:	b510      	push	{r4, lr}
 80007b6:	0004      	movs	r4, r0
 80007b8:	b088      	sub	sp, #32
 80007ba:	2214      	movs	r2, #20
 80007bc:	2100      	movs	r1, #0
 80007be:	a803      	add	r0, sp, #12
 80007c0:	f001 fce3 	bl	800218a <memset>
 80007c4:	4b12      	ldr	r3, [pc, #72]	; (8000810 <HAL_UART_MspInit+0x5c>)
 80007c6:	6822      	ldr	r2, [r4, #0]
 80007c8:	429a      	cmp	r2, r3
 80007ca:	d11f      	bne.n	800080c <HAL_UART_MspInit+0x58>
 80007cc:	2080      	movs	r0, #128	; 0x80
 80007ce:	4b11      	ldr	r3, [pc, #68]	; (8000814 <HAL_UART_MspInit+0x60>)
 80007d0:	01c0      	lsls	r0, r0, #7
 80007d2:	6999      	ldr	r1, [r3, #24]
 80007d4:	4301      	orrs	r1, r0
 80007d6:	6199      	str	r1, [r3, #24]
 80007d8:	2180      	movs	r1, #128	; 0x80
 80007da:	699a      	ldr	r2, [r3, #24]
 80007dc:	0289      	lsls	r1, r1, #10
 80007de:	4002      	ands	r2, r0
 80007e0:	9201      	str	r2, [sp, #4]
 80007e2:	9a01      	ldr	r2, [sp, #4]
 80007e4:	695a      	ldr	r2, [r3, #20]
 80007e6:	2090      	movs	r0, #144	; 0x90
 80007e8:	430a      	orrs	r2, r1
 80007ea:	615a      	str	r2, [r3, #20]
 80007ec:	695b      	ldr	r3, [r3, #20]
 80007ee:	05c0      	lsls	r0, r0, #23
 80007f0:	400b      	ands	r3, r1
 80007f2:	9302      	str	r3, [sp, #8]
 80007f4:	9b02      	ldr	r3, [sp, #8]
 80007f6:	4b08      	ldr	r3, [pc, #32]	; (8000818 <HAL_UART_MspInit+0x64>)
 80007f8:	a903      	add	r1, sp, #12
 80007fa:	9303      	str	r3, [sp, #12]
 80007fc:	2302      	movs	r3, #2
 80007fe:	9304      	str	r3, [sp, #16]
 8000800:	3301      	adds	r3, #1
 8000802:	9306      	str	r3, [sp, #24]
 8000804:	3b02      	subs	r3, #2
 8000806:	9307      	str	r3, [sp, #28]
 8000808:	f000 f9c6 	bl	8000b98 <HAL_GPIO_Init>
 800080c:	b008      	add	sp, #32
 800080e:	bd10      	pop	{r4, pc}
 8000810:	40013800 	.word	0x40013800
 8000814:	40021000 	.word	0x40021000
 8000818:	00008004 	.word	0x00008004

0800081c <NMI_Handler>:
 800081c:	e7fe      	b.n	800081c <NMI_Handler>

0800081e <HardFault_Handler>:
 800081e:	e7fe      	b.n	800081e <HardFault_Handler>

08000820 <SVC_Handler>:
 8000820:	4770      	bx	lr

08000822 <PendSV_Handler>:
 8000822:	4770      	bx	lr

08000824 <SysTick_Handler>:
 8000824:	b510      	push	{r4, lr}
 8000826:	f000 f879 	bl	800091c <HAL_IncTick>
 800082a:	bd10      	pop	{r4, pc}

0800082c <RTC_IRQHandler>:
 800082c:	b510      	push	{r4, lr}
 800082e:	4802      	ldr	r0, [pc, #8]	; (8000838 <RTC_IRQHandler+0xc>)
 8000830:	f000 fdba 	bl	80013a8 <HAL_RTC_AlarmIRQHandler>
 8000834:	bd10      	pop	{r4, pc}
 8000836:	46c0      	nop			; (mov r8, r8)
 8000838:	20000584 	.word	0x20000584

0800083c <DMA1_Channel2_3_IRQHandler>:
 800083c:	b510      	push	{r4, lr}
 800083e:	4802      	ldr	r0, [pc, #8]	; (8000848 <DMA1_Channel2_3_IRQHandler+0xc>)
 8000840:	f000 f961 	bl	8000b06 <HAL_DMA_IRQHandler>
 8000844:	bd10      	pop	{r4, pc}
 8000846:	46c0      	nop			; (mov r8, r8)
 8000848:	20000540 	.word	0x20000540

0800084c <SPI1_IRQHandler>:
 800084c:	b510      	push	{r4, lr}
 800084e:	4802      	ldr	r0, [pc, #8]	; (8000858 <SPI1_IRQHandler+0xc>)
 8000850:	f001 fa1a 	bl	8001c88 <HAL_SPI_IRQHandler>
 8000854:	bd10      	pop	{r4, pc}
 8000856:	46c0      	nop			; (mov r8, r8)
 8000858:	200005a4 	.word	0x200005a4

0800085c <SystemInit>:
 800085c:	4770      	bx	lr
	...

08000860 <Reset_Handler>:
 8000860:	480d      	ldr	r0, [pc, #52]	; (8000898 <LoopForever+0x2>)
 8000862:	4685      	mov	sp, r0
 8000864:	480d      	ldr	r0, [pc, #52]	; (800089c <LoopForever+0x6>)
 8000866:	490e      	ldr	r1, [pc, #56]	; (80008a0 <LoopForever+0xa>)
 8000868:	4a0e      	ldr	r2, [pc, #56]	; (80008a4 <LoopForever+0xe>)
 800086a:	2300      	movs	r3, #0
 800086c:	e002      	b.n	8000874 <LoopCopyDataInit>

0800086e <CopyDataInit>:
 800086e:	58d4      	ldr	r4, [r2, r3]
 8000870:	50c4      	str	r4, [r0, r3]
 8000872:	3304      	adds	r3, #4

08000874 <LoopCopyDataInit>:
 8000874:	18c4      	adds	r4, r0, r3
 8000876:	428c      	cmp	r4, r1
 8000878:	d3f9      	bcc.n	800086e <CopyDataInit>
 800087a:	4a0b      	ldr	r2, [pc, #44]	; (80008a8 <LoopForever+0x12>)
 800087c:	4c0b      	ldr	r4, [pc, #44]	; (80008ac <LoopForever+0x16>)
 800087e:	2300      	movs	r3, #0
 8000880:	e001      	b.n	8000886 <LoopFillZerobss>

08000882 <FillZerobss>:
 8000882:	6013      	str	r3, [r2, #0]
 8000884:	3204      	adds	r2, #4

08000886 <LoopFillZerobss>:
 8000886:	42a2      	cmp	r2, r4
 8000888:	d3fb      	bcc.n	8000882 <FillZerobss>
 800088a:	f7ff ffe7 	bl	800085c <SystemInit>
 800088e:	f001 fc4f 	bl	8002130 <__libc_init_array>
 8000892:	f7ff fdc1 	bl	8000418 <main>

08000896 <LoopForever>:
 8000896:	e7fe      	b.n	8000896 <LoopForever>
 8000898:	20001000 	.word	0x20001000
 800089c:	20000000 	.word	0x20000000
 80008a0:	20000010 	.word	0x20000010
 80008a4:	08002264 	.word	0x08002264
 80008a8:	20000010 	.word	0x20000010
 80008ac:	20000694 	.word	0x20000694

080008b0 <ADC1_IRQHandler>:
 80008b0:	e7fe      	b.n	80008b0 <ADC1_IRQHandler>
	...

080008b4 <HAL_InitTick>:
 80008b4:	b570      	push	{r4, r5, r6, lr}
 80008b6:	0005      	movs	r5, r0
 80008b8:	20fa      	movs	r0, #250	; 0xfa
 80008ba:	4b0d      	ldr	r3, [pc, #52]	; (80008f0 <HAL_InitTick+0x3c>)
 80008bc:	0080      	lsls	r0, r0, #2
 80008be:	7819      	ldrb	r1, [r3, #0]
 80008c0:	f7ff fc36 	bl	8000130 <__udivsi3>
 80008c4:	4b0b      	ldr	r3, [pc, #44]	; (80008f4 <HAL_InitTick+0x40>)
 80008c6:	0001      	movs	r1, r0
 80008c8:	6818      	ldr	r0, [r3, #0]
 80008ca:	f7ff fc31 	bl	8000130 <__udivsi3>
 80008ce:	f000 f86d 	bl	80009ac <HAL_SYSTICK_Config>
 80008d2:	0004      	movs	r4, r0
 80008d4:	2001      	movs	r0, #1
 80008d6:	2c00      	cmp	r4, #0
 80008d8:	d109      	bne.n	80008ee <HAL_InitTick+0x3a>
 80008da:	2d03      	cmp	r5, #3
 80008dc:	d807      	bhi.n	80008ee <HAL_InitTick+0x3a>
 80008de:	3802      	subs	r0, #2
 80008e0:	0022      	movs	r2, r4
 80008e2:	0029      	movs	r1, r5
 80008e4:	f000 f82c 	bl	8000940 <HAL_NVIC_SetPriority>
 80008e8:	0020      	movs	r0, r4
 80008ea:	4b03      	ldr	r3, [pc, #12]	; (80008f8 <HAL_InitTick+0x44>)
 80008ec:	601d      	str	r5, [r3, #0]
 80008ee:	bd70      	pop	{r4, r5, r6, pc}
 80008f0:	20000008 	.word	0x20000008
 80008f4:	20000004 	.word	0x20000004
 80008f8:	2000000c 	.word	0x2000000c

080008fc <HAL_Init>:
 80008fc:	2310      	movs	r3, #16
 80008fe:	4a06      	ldr	r2, [pc, #24]	; (8000918 <HAL_Init+0x1c>)
 8000900:	b510      	push	{r4, lr}
 8000902:	6811      	ldr	r1, [r2, #0]
 8000904:	2000      	movs	r0, #0
 8000906:	430b      	orrs	r3, r1
 8000908:	6013      	str	r3, [r2, #0]
 800090a:	f7ff ffd3 	bl	80008b4 <HAL_InitTick>
 800090e:	f7ff fecf 	bl	80006b0 <HAL_MspInit>
 8000912:	2000      	movs	r0, #0
 8000914:	bd10      	pop	{r4, pc}
 8000916:	46c0      	nop			; (mov r8, r8)
 8000918:	40022000 	.word	0x40022000

0800091c <HAL_IncTick>:
 800091c:	4a03      	ldr	r2, [pc, #12]	; (800092c <HAL_IncTick+0x10>)
 800091e:	4b04      	ldr	r3, [pc, #16]	; (8000930 <HAL_IncTick+0x14>)
 8000920:	6811      	ldr	r1, [r2, #0]
 8000922:	781b      	ldrb	r3, [r3, #0]
 8000924:	185b      	adds	r3, r3, r1
 8000926:	6013      	str	r3, [r2, #0]
 8000928:	4770      	bx	lr
 800092a:	46c0      	nop			; (mov r8, r8)
 800092c:	20000690 	.word	0x20000690
 8000930:	20000008 	.word	0x20000008

08000934 <HAL_GetTick>:
 8000934:	4b01      	ldr	r3, [pc, #4]	; (800093c <HAL_GetTick+0x8>)
 8000936:	6818      	ldr	r0, [r3, #0]
 8000938:	4770      	bx	lr
 800093a:	46c0      	nop			; (mov r8, r8)
 800093c:	20000690 	.word	0x20000690

08000940 <HAL_NVIC_SetPriority>:
 8000940:	b530      	push	{r4, r5, lr}
 8000942:	25ff      	movs	r5, #255	; 0xff
 8000944:	2403      	movs	r4, #3
 8000946:	002a      	movs	r2, r5
 8000948:	4004      	ands	r4, r0
 800094a:	00e4      	lsls	r4, r4, #3
 800094c:	40a2      	lsls	r2, r4
 800094e:	0189      	lsls	r1, r1, #6
 8000950:	4029      	ands	r1, r5
 8000952:	43d2      	mvns	r2, r2
 8000954:	40a1      	lsls	r1, r4
 8000956:	b2c3      	uxtb	r3, r0
 8000958:	2800      	cmp	r0, #0
 800095a:	db0a      	blt.n	8000972 <HAL_NVIC_SetPriority+0x32>
 800095c:	24c0      	movs	r4, #192	; 0xc0
 800095e:	4b0b      	ldr	r3, [pc, #44]	; (800098c <HAL_NVIC_SetPriority+0x4c>)
 8000960:	0880      	lsrs	r0, r0, #2
 8000962:	0080      	lsls	r0, r0, #2
 8000964:	18c0      	adds	r0, r0, r3
 8000966:	00a4      	lsls	r4, r4, #2
 8000968:	5903      	ldr	r3, [r0, r4]
 800096a:	401a      	ands	r2, r3
 800096c:	4311      	orrs	r1, r2
 800096e:	5101      	str	r1, [r0, r4]
 8000970:	bd30      	pop	{r4, r5, pc}
 8000972:	200f      	movs	r0, #15
 8000974:	4003      	ands	r3, r0
 8000976:	3b08      	subs	r3, #8
 8000978:	4805      	ldr	r0, [pc, #20]	; (8000990 <HAL_NVIC_SetPriority+0x50>)
 800097a:	089b      	lsrs	r3, r3, #2
 800097c:	009b      	lsls	r3, r3, #2
 800097e:	181b      	adds	r3, r3, r0
 8000980:	69d8      	ldr	r0, [r3, #28]
 8000982:	4002      	ands	r2, r0
 8000984:	4311      	orrs	r1, r2
 8000986:	61d9      	str	r1, [r3, #28]
 8000988:	e7f2      	b.n	8000970 <HAL_NVIC_SetPriority+0x30>
 800098a:	46c0      	nop			; (mov r8, r8)
 800098c:	e000e100 	.word	0xe000e100
 8000990:	e000ed00 	.word	0xe000ed00

08000994 <HAL_NVIC_EnableIRQ>:
 8000994:	2800      	cmp	r0, #0
 8000996:	db05      	blt.n	80009a4 <HAL_NVIC_EnableIRQ+0x10>
 8000998:	231f      	movs	r3, #31
 800099a:	4018      	ands	r0, r3
 800099c:	3b1e      	subs	r3, #30
 800099e:	4083      	lsls	r3, r0
 80009a0:	4a01      	ldr	r2, [pc, #4]	; (80009a8 <HAL_NVIC_EnableIRQ+0x14>)
 80009a2:	6013      	str	r3, [r2, #0]
 80009a4:	4770      	bx	lr
 80009a6:	46c0      	nop			; (mov r8, r8)
 80009a8:	e000e100 	.word	0xe000e100

080009ac <HAL_SYSTICK_Config>:
 80009ac:	2280      	movs	r2, #128	; 0x80
 80009ae:	1e43      	subs	r3, r0, #1
 80009b0:	0452      	lsls	r2, r2, #17
 80009b2:	2001      	movs	r0, #1
 80009b4:	4293      	cmp	r3, r2
 80009b6:	d20d      	bcs.n	80009d4 <HAL_SYSTICK_Config+0x28>
 80009b8:	21c0      	movs	r1, #192	; 0xc0
 80009ba:	4a07      	ldr	r2, [pc, #28]	; (80009d8 <HAL_SYSTICK_Config+0x2c>)
 80009bc:	4807      	ldr	r0, [pc, #28]	; (80009dc <HAL_SYSTICK_Config+0x30>)
 80009be:	6053      	str	r3, [r2, #4]
 80009c0:	6a03      	ldr	r3, [r0, #32]
 80009c2:	0609      	lsls	r1, r1, #24
 80009c4:	021b      	lsls	r3, r3, #8
 80009c6:	0a1b      	lsrs	r3, r3, #8
 80009c8:	430b      	orrs	r3, r1
 80009ca:	6203      	str	r3, [r0, #32]
 80009cc:	2000      	movs	r0, #0
 80009ce:	2307      	movs	r3, #7
 80009d0:	6090      	str	r0, [r2, #8]
 80009d2:	6013      	str	r3, [r2, #0]
 80009d4:	4770      	bx	lr
 80009d6:	46c0      	nop			; (mov r8, r8)
 80009d8:	e000e010 	.word	0xe000e010
 80009dc:	e000ed00 	.word	0xe000ed00

080009e0 <HAL_DMA_Init>:
 80009e0:	b570      	push	{r4, r5, r6, lr}
 80009e2:	0004      	movs	r4, r0
 80009e4:	2001      	movs	r0, #1
 80009e6:	2c00      	cmp	r4, #0
 80009e8:	d024      	beq.n	8000a34 <HAL_DMA_Init+0x54>
 80009ea:	2302      	movs	r3, #2
 80009ec:	1ca5      	adds	r5, r4, #2
 80009ee:	77eb      	strb	r3, [r5, #31]
 80009f0:	6820      	ldr	r0, [r4, #0]
 80009f2:	4b11      	ldr	r3, [pc, #68]	; (8000a38 <HAL_DMA_Init+0x58>)
 80009f4:	6802      	ldr	r2, [r0, #0]
 80009f6:	68a1      	ldr	r1, [r4, #8]
 80009f8:	401a      	ands	r2, r3
 80009fa:	6863      	ldr	r3, [r4, #4]
 80009fc:	430b      	orrs	r3, r1
 80009fe:	68e1      	ldr	r1, [r4, #12]
 8000a00:	430b      	orrs	r3, r1
 8000a02:	6921      	ldr	r1, [r4, #16]
 8000a04:	430b      	orrs	r3, r1
 8000a06:	6961      	ldr	r1, [r4, #20]
 8000a08:	430b      	orrs	r3, r1
 8000a0a:	69a1      	ldr	r1, [r4, #24]
 8000a0c:	430b      	orrs	r3, r1
 8000a0e:	69e1      	ldr	r1, [r4, #28]
 8000a10:	430b      	orrs	r3, r1
 8000a12:	4313      	orrs	r3, r2
 8000a14:	6003      	str	r3, [r0, #0]
 8000a16:	4b09      	ldr	r3, [pc, #36]	; (8000a3c <HAL_DMA_Init+0x5c>)
 8000a18:	2114      	movs	r1, #20
 8000a1a:	18c0      	adds	r0, r0, r3
 8000a1c:	f7ff fb88 	bl	8000130 <__udivsi3>
 8000a20:	4b07      	ldr	r3, [pc, #28]	; (8000a40 <HAL_DMA_Init+0x60>)
 8000a22:	0080      	lsls	r0, r0, #2
 8000a24:	6420      	str	r0, [r4, #64]	; 0x40
 8000a26:	63e3      	str	r3, [r4, #60]	; 0x3c
 8000a28:	2000      	movs	r0, #0
 8000a2a:	2301      	movs	r3, #1
 8000a2c:	63a0      	str	r0, [r4, #56]	; 0x38
 8000a2e:	18e4      	adds	r4, r4, r3
 8000a30:	77eb      	strb	r3, [r5, #31]
 8000a32:	77e0      	strb	r0, [r4, #31]
 8000a34:	bd70      	pop	{r4, r5, r6, pc}
 8000a36:	46c0      	nop			; (mov r8, r8)
 8000a38:	ffffc00f 	.word	0xffffc00f
 8000a3c:	bffdfff8 	.word	0xbffdfff8
 8000a40:	40020000 	.word	0x40020000

08000a44 <HAL_DMA_Start_IT>:
 8000a44:	b5f7      	push	{r0, r1, r2, r4, r5, r6, r7, lr}
 8000a46:	1c45      	adds	r5, r0, #1
 8000a48:	9301      	str	r3, [sp, #4]
 8000a4a:	7feb      	ldrb	r3, [r5, #31]
 8000a4c:	0004      	movs	r4, r0
 8000a4e:	2002      	movs	r0, #2
 8000a50:	2b01      	cmp	r3, #1
 8000a52:	d027      	beq.n	8000aa4 <HAL_DMA_Start_IT+0x60>
 8000a54:	2301      	movs	r3, #1
 8000a56:	1827      	adds	r7, r4, r0
 8000a58:	77eb      	strb	r3, [r5, #31]
 8000a5a:	7ffb      	ldrb	r3, [r7, #31]
 8000a5c:	2600      	movs	r6, #0
 8000a5e:	469c      	mov	ip, r3
 8000a60:	4660      	mov	r0, ip
 8000a62:	b2db      	uxtb	r3, r3
 8000a64:	2801      	cmp	r0, #1
 8000a66:	d128      	bne.n	8000aba <HAL_DMA_Start_IT+0x76>
 8000a68:	3001      	adds	r0, #1
 8000a6a:	77f8      	strb	r0, [r7, #31]
 8000a6c:	6820      	ldr	r0, [r4, #0]
 8000a6e:	63a6      	str	r6, [r4, #56]	; 0x38
 8000a70:	6805      	ldr	r5, [r0, #0]
 8000a72:	6c26      	ldr	r6, [r4, #64]	; 0x40
 8000a74:	439d      	bics	r5, r3
 8000a76:	40b3      	lsls	r3, r6
 8000a78:	6005      	str	r5, [r0, #0]
 8000a7a:	6be5      	ldr	r5, [r4, #60]	; 0x3c
 8000a7c:	606b      	str	r3, [r5, #4]
 8000a7e:	9b01      	ldr	r3, [sp, #4]
 8000a80:	6043      	str	r3, [r0, #4]
 8000a82:	6863      	ldr	r3, [r4, #4]
 8000a84:	2b10      	cmp	r3, #16
 8000a86:	d10e      	bne.n	8000aa6 <HAL_DMA_Start_IT+0x62>
 8000a88:	6082      	str	r2, [r0, #8]
 8000a8a:	60c1      	str	r1, [r0, #12]
 8000a8c:	6ae3      	ldr	r3, [r4, #44]	; 0x2c
 8000a8e:	6802      	ldr	r2, [r0, #0]
 8000a90:	2b00      	cmp	r3, #0
 8000a92:	d00b      	beq.n	8000aac <HAL_DMA_Start_IT+0x68>
 8000a94:	230e      	movs	r3, #14
 8000a96:	4313      	orrs	r3, r2
 8000a98:	6003      	str	r3, [r0, #0]
 8000a9a:	2301      	movs	r3, #1
 8000a9c:	6802      	ldr	r2, [r0, #0]
 8000a9e:	4313      	orrs	r3, r2
 8000aa0:	6003      	str	r3, [r0, #0]
 8000aa2:	2000      	movs	r0, #0
 8000aa4:	bdfe      	pop	{r1, r2, r3, r4, r5, r6, r7, pc}
 8000aa6:	6081      	str	r1, [r0, #8]
 8000aa8:	60c2      	str	r2, [r0, #12]
 8000aaa:	e7ef      	b.n	8000a8c <HAL_DMA_Start_IT+0x48>
 8000aac:	230a      	movs	r3, #10
 8000aae:	4313      	orrs	r3, r2
 8000ab0:	2204      	movs	r2, #4
 8000ab2:	6003      	str	r3, [r0, #0]
 8000ab4:	6803      	ldr	r3, [r0, #0]
 8000ab6:	4393      	bics	r3, r2
 8000ab8:	e7ee      	b.n	8000a98 <HAL_DMA_Start_IT+0x54>
 8000aba:	2002      	movs	r0, #2
 8000abc:	77ee      	strb	r6, [r5, #31]
 8000abe:	e7f1      	b.n	8000aa4 <HAL_DMA_Start_IT+0x60>

08000ac0 <HAL_DMA_Abort_IT>:
 8000ac0:	b570      	push	{r4, r5, r6, lr}
 8000ac2:	1c84      	adds	r4, r0, #2
 8000ac4:	7fe3      	ldrb	r3, [r4, #31]
 8000ac6:	2b02      	cmp	r3, #2
 8000ac8:	d004      	beq.n	8000ad4 <HAL_DMA_Abort_IT+0x14>
 8000aca:	2304      	movs	r3, #4
 8000acc:	6383      	str	r3, [r0, #56]	; 0x38
 8000ace:	3b03      	subs	r3, #3
 8000ad0:	0018      	movs	r0, r3
 8000ad2:	bd70      	pop	{r4, r5, r6, pc}
 8000ad4:	210e      	movs	r1, #14
 8000ad6:	6803      	ldr	r3, [r0, #0]
 8000ad8:	6c05      	ldr	r5, [r0, #64]	; 0x40
 8000ada:	681a      	ldr	r2, [r3, #0]
 8000adc:	438a      	bics	r2, r1
 8000ade:	601a      	str	r2, [r3, #0]
 8000ae0:	2201      	movs	r2, #1
 8000ae2:	6819      	ldr	r1, [r3, #0]
 8000ae4:	4391      	bics	r1, r2
 8000ae6:	6019      	str	r1, [r3, #0]
 8000ae8:	0011      	movs	r1, r2
 8000aea:	40a9      	lsls	r1, r5
 8000aec:	6bc3      	ldr	r3, [r0, #60]	; 0x3c
 8000aee:	6059      	str	r1, [r3, #4]
 8000af0:	77e2      	strb	r2, [r4, #31]
 8000af2:	2400      	movs	r4, #0
 8000af4:	1883      	adds	r3, r0, r2
 8000af6:	77dc      	strb	r4, [r3, #31]
 8000af8:	6b42      	ldr	r2, [r0, #52]	; 0x34
 8000afa:	0013      	movs	r3, r2
 8000afc:	42a2      	cmp	r2, r4
 8000afe:	d0e7      	beq.n	8000ad0 <HAL_DMA_Abort_IT+0x10>
 8000b00:	4790      	blx	r2
 8000b02:	0023      	movs	r3, r4
 8000b04:	e7e4      	b.n	8000ad0 <HAL_DMA_Abort_IT+0x10>

08000b06 <HAL_DMA_IRQHandler>:
 8000b06:	b5f8      	push	{r3, r4, r5, r6, r7, lr}
 8000b08:	2704      	movs	r7, #4
 8000b0a:	003e      	movs	r6, r7
 8000b0c:	6c01      	ldr	r1, [r0, #64]	; 0x40
 8000b0e:	6bc2      	ldr	r2, [r0, #60]	; 0x3c
 8000b10:	408e      	lsls	r6, r1
 8000b12:	6815      	ldr	r5, [r2, #0]
 8000b14:	6803      	ldr	r3, [r0, #0]
 8000b16:	681c      	ldr	r4, [r3, #0]
 8000b18:	4235      	tst	r5, r6
 8000b1a:	d00d      	beq.n	8000b38 <HAL_DMA_IRQHandler+0x32>
 8000b1c:	423c      	tst	r4, r7
 8000b1e:	d00b      	beq.n	8000b38 <HAL_DMA_IRQHandler+0x32>
 8000b20:	6819      	ldr	r1, [r3, #0]
 8000b22:	0689      	lsls	r1, r1, #26
 8000b24:	d402      	bmi.n	8000b2c <HAL_DMA_IRQHandler+0x26>
 8000b26:	6819      	ldr	r1, [r3, #0]
 8000b28:	43b9      	bics	r1, r7
 8000b2a:	6019      	str	r1, [r3, #0]
 8000b2c:	6ac3      	ldr	r3, [r0, #44]	; 0x2c
 8000b2e:	6056      	str	r6, [r2, #4]
 8000b30:	2b00      	cmp	r3, #0
 8000b32:	d019      	beq.n	8000b68 <HAL_DMA_IRQHandler+0x62>
 8000b34:	4798      	blx	r3
 8000b36:	e017      	b.n	8000b68 <HAL_DMA_IRQHandler+0x62>
 8000b38:	2702      	movs	r7, #2
 8000b3a:	003e      	movs	r6, r7
 8000b3c:	408e      	lsls	r6, r1
 8000b3e:	4235      	tst	r5, r6
 8000b40:	d013      	beq.n	8000b6a <HAL_DMA_IRQHandler+0x64>
 8000b42:	423c      	tst	r4, r7
 8000b44:	d011      	beq.n	8000b6a <HAL_DMA_IRQHandler+0x64>
 8000b46:	6819      	ldr	r1, [r3, #0]
 8000b48:	0689      	lsls	r1, r1, #26
 8000b4a:	d406      	bmi.n	8000b5a <HAL_DMA_IRQHandler+0x54>
 8000b4c:	240a      	movs	r4, #10
 8000b4e:	6819      	ldr	r1, [r3, #0]
 8000b50:	43a1      	bics	r1, r4
 8000b52:	6019      	str	r1, [r3, #0]
 8000b54:	2101      	movs	r1, #1
 8000b56:	19c3      	adds	r3, r0, r7
 8000b58:	77d9      	strb	r1, [r3, #31]
 8000b5a:	6056      	str	r6, [r2, #4]
 8000b5c:	2200      	movs	r2, #0
 8000b5e:	1c43      	adds	r3, r0, #1
 8000b60:	77da      	strb	r2, [r3, #31]
 8000b62:	6a83      	ldr	r3, [r0, #40]	; 0x28
 8000b64:	4293      	cmp	r3, r2
 8000b66:	d1e5      	bne.n	8000b34 <HAL_DMA_IRQHandler+0x2e>
 8000b68:	bdf8      	pop	{r3, r4, r5, r6, r7, pc}
 8000b6a:	2608      	movs	r6, #8
 8000b6c:	0037      	movs	r7, r6
 8000b6e:	408f      	lsls	r7, r1
 8000b70:	423d      	tst	r5, r7
 8000b72:	d0f9      	beq.n	8000b68 <HAL_DMA_IRQHandler+0x62>
 8000b74:	4234      	tst	r4, r6
 8000b76:	d0f7      	beq.n	8000b68 <HAL_DMA_IRQHandler+0x62>
 8000b78:	250e      	movs	r5, #14
 8000b7a:	681c      	ldr	r4, [r3, #0]
 8000b7c:	43ac      	bics	r4, r5
 8000b7e:	601c      	str	r4, [r3, #0]
 8000b80:	2301      	movs	r3, #1
 8000b82:	001c      	movs	r4, r3
 8000b84:	408c      	lsls	r4, r1
 8000b86:	6054      	str	r4, [r2, #4]
 8000b88:	1c82      	adds	r2, r0, #2
 8000b8a:	6383      	str	r3, [r0, #56]	; 0x38
 8000b8c:	77d3      	strb	r3, [r2, #31]
 8000b8e:	2200      	movs	r2, #0
 8000b90:	18c3      	adds	r3, r0, r3
 8000b92:	77da      	strb	r2, [r3, #31]
 8000b94:	6b03      	ldr	r3, [r0, #48]	; 0x30
 8000b96:	e7e5      	b.n	8000b64 <HAL_DMA_IRQHandler+0x5e>

08000b98 <HAL_GPIO_Init>:
 8000b98:	2300      	movs	r3, #0
 8000b9a:	b5f0      	push	{r4, r5, r6, r7, lr}
 8000b9c:	b087      	sub	sp, #28
 8000b9e:	680a      	ldr	r2, [r1, #0]
 8000ba0:	0014      	movs	r4, r2
 8000ba2:	40dc      	lsrs	r4, r3
 8000ba4:	d101      	bne.n	8000baa <HAL_GPIO_Init+0x12>
 8000ba6:	b007      	add	sp, #28
 8000ba8:	bdf0      	pop	{r4, r5, r6, r7, pc}
 8000baa:	2501      	movs	r5, #1
 8000bac:	0014      	movs	r4, r2
 8000bae:	409d      	lsls	r5, r3
 8000bb0:	402c      	ands	r4, r5
 8000bb2:	9401      	str	r4, [sp, #4]
 8000bb4:	422a      	tst	r2, r5
 8000bb6:	d100      	bne.n	8000bba <HAL_GPIO_Init+0x22>
 8000bb8:	e091      	b.n	8000cde <HAL_GPIO_Init+0x146>
 8000bba:	684a      	ldr	r2, [r1, #4]
 8000bbc:	005e      	lsls	r6, r3, #1
 8000bbe:	4694      	mov	ip, r2
 8000bc0:	2203      	movs	r2, #3
 8000bc2:	4664      	mov	r4, ip
 8000bc4:	4022      	ands	r2, r4
 8000bc6:	2403      	movs	r4, #3
 8000bc8:	40b4      	lsls	r4, r6
 8000bca:	43e4      	mvns	r4, r4
 8000bcc:	9402      	str	r4, [sp, #8]
 8000bce:	1e54      	subs	r4, r2, #1
 8000bd0:	2c01      	cmp	r4, #1
 8000bd2:	d82a      	bhi.n	8000c2a <HAL_GPIO_Init+0x92>
 8000bd4:	6887      	ldr	r7, [r0, #8]
 8000bd6:	9c02      	ldr	r4, [sp, #8]
 8000bd8:	4027      	ands	r7, r4
 8000bda:	68cc      	ldr	r4, [r1, #12]
 8000bdc:	40b4      	lsls	r4, r6
 8000bde:	433c      	orrs	r4, r7
 8000be0:	6084      	str	r4, [r0, #8]
 8000be2:	6844      	ldr	r4, [r0, #4]
 8000be4:	2701      	movs	r7, #1
 8000be6:	43ac      	bics	r4, r5
 8000be8:	0025      	movs	r5, r4
 8000bea:	4664      	mov	r4, ip
 8000bec:	0924      	lsrs	r4, r4, #4
 8000bee:	403c      	ands	r4, r7
 8000bf0:	409c      	lsls	r4, r3
 8000bf2:	432c      	orrs	r4, r5
 8000bf4:	6044      	str	r4, [r0, #4]
 8000bf6:	68c5      	ldr	r5, [r0, #12]
 8000bf8:	9c02      	ldr	r4, [sp, #8]
 8000bfa:	4025      	ands	r5, r4
 8000bfc:	688c      	ldr	r4, [r1, #8]
 8000bfe:	40b4      	lsls	r4, r6
 8000c00:	432c      	orrs	r4, r5
 8000c02:	60c4      	str	r4, [r0, #12]
 8000c04:	2a02      	cmp	r2, #2
 8000c06:	d112      	bne.n	8000c2e <HAL_GPIO_Init+0x96>
 8000c08:	08dc      	lsrs	r4, r3, #3
 8000c0a:	2507      	movs	r5, #7
 8000c0c:	00a4      	lsls	r4, r4, #2
 8000c0e:	1904      	adds	r4, r0, r4
 8000c10:	6a27      	ldr	r7, [r4, #32]
 8000c12:	9403      	str	r4, [sp, #12]
 8000c14:	240f      	movs	r4, #15
 8000c16:	401d      	ands	r5, r3
 8000c18:	00ad      	lsls	r5, r5, #2
 8000c1a:	40ac      	lsls	r4, r5
 8000c1c:	43a7      	bics	r7, r4
 8000c1e:	690c      	ldr	r4, [r1, #16]
 8000c20:	40ac      	lsls	r4, r5
 8000c22:	4327      	orrs	r7, r4
 8000c24:	9c03      	ldr	r4, [sp, #12]
 8000c26:	6227      	str	r7, [r4, #32]
 8000c28:	e001      	b.n	8000c2e <HAL_GPIO_Init+0x96>
 8000c2a:	2a03      	cmp	r2, #3
 8000c2c:	d1e3      	bne.n	8000bf6 <HAL_GPIO_Init+0x5e>
 8000c2e:	6804      	ldr	r4, [r0, #0]
 8000c30:	9d02      	ldr	r5, [sp, #8]
 8000c32:	40b2      	lsls	r2, r6
 8000c34:	4025      	ands	r5, r4
 8000c36:	002c      	movs	r4, r5
 8000c38:	4314      	orrs	r4, r2
 8000c3a:	6004      	str	r4, [r0, #0]
 8000c3c:	24c0      	movs	r4, #192	; 0xc0
 8000c3e:	4662      	mov	r2, ip
 8000c40:	02a4      	lsls	r4, r4, #10
 8000c42:	4222      	tst	r2, r4
 8000c44:	d04b      	beq.n	8000cde <HAL_GPIO_Init+0x146>
 8000c46:	2501      	movs	r5, #1
 8000c48:	4a26      	ldr	r2, [pc, #152]	; (8000ce4 <HAL_GPIO_Init+0x14c>)
 8000c4a:	2790      	movs	r7, #144	; 0x90
 8000c4c:	6994      	ldr	r4, [r2, #24]
 8000c4e:	05ff      	lsls	r7, r7, #23
 8000c50:	432c      	orrs	r4, r5
 8000c52:	6194      	str	r4, [r2, #24]
 8000c54:	6992      	ldr	r2, [r2, #24]
 8000c56:	089c      	lsrs	r4, r3, #2
 8000c58:	402a      	ands	r2, r5
 8000c5a:	9205      	str	r2, [sp, #20]
 8000c5c:	9a05      	ldr	r2, [sp, #20]
 8000c5e:	4a22      	ldr	r2, [pc, #136]	; (8000ce8 <HAL_GPIO_Init+0x150>)
 8000c60:	00a4      	lsls	r4, r4, #2
 8000c62:	18a4      	adds	r4, r4, r2
 8000c64:	220f      	movs	r2, #15
 8000c66:	3502      	adds	r5, #2
 8000c68:	401d      	ands	r5, r3
 8000c6a:	00ad      	lsls	r5, r5, #2
 8000c6c:	40aa      	lsls	r2, r5
 8000c6e:	68a6      	ldr	r6, [r4, #8]
 8000c70:	4396      	bics	r6, r2
 8000c72:	2200      	movs	r2, #0
 8000c74:	42b8      	cmp	r0, r7
 8000c76:	d008      	beq.n	8000c8a <HAL_GPIO_Init+0xf2>
 8000c78:	4f1c      	ldr	r7, [pc, #112]	; (8000cec <HAL_GPIO_Init+0x154>)
 8000c7a:	3201      	adds	r2, #1
 8000c7c:	42b8      	cmp	r0, r7
 8000c7e:	d004      	beq.n	8000c8a <HAL_GPIO_Init+0xf2>
 8000c80:	4f1b      	ldr	r7, [pc, #108]	; (8000cf0 <HAL_GPIO_Init+0x158>)
 8000c82:	3201      	adds	r2, #1
 8000c84:	42b8      	cmp	r0, r7
 8000c86:	d000      	beq.n	8000c8a <HAL_GPIO_Init+0xf2>
 8000c88:	3203      	adds	r2, #3
 8000c8a:	40aa      	lsls	r2, r5
 8000c8c:	4667      	mov	r7, ip
 8000c8e:	4332      	orrs	r2, r6
 8000c90:	60a2      	str	r2, [r4, #8]
 8000c92:	4a18      	ldr	r2, [pc, #96]	; (8000cf4 <HAL_GPIO_Init+0x15c>)
 8000c94:	9c01      	ldr	r4, [sp, #4]
 8000c96:	6816      	ldr	r6, [r2, #0]
 8000c98:	9d01      	ldr	r5, [sp, #4]
 8000c9a:	43e4      	mvns	r4, r4
 8000c9c:	4335      	orrs	r5, r6
 8000c9e:	03ff      	lsls	r7, r7, #15
 8000ca0:	d401      	bmi.n	8000ca6 <HAL_GPIO_Init+0x10e>
 8000ca2:	0035      	movs	r5, r6
 8000ca4:	4025      	ands	r5, r4
 8000ca6:	4667      	mov	r7, ip
 8000ca8:	6015      	str	r5, [r2, #0]
 8000caa:	6856      	ldr	r6, [r2, #4]
 8000cac:	9d01      	ldr	r5, [sp, #4]
 8000cae:	4335      	orrs	r5, r6
 8000cb0:	03bf      	lsls	r7, r7, #14
 8000cb2:	d401      	bmi.n	8000cb8 <HAL_GPIO_Init+0x120>
 8000cb4:	0035      	movs	r5, r6
 8000cb6:	4025      	ands	r5, r4
 8000cb8:	4667      	mov	r7, ip
 8000cba:	6055      	str	r5, [r2, #4]
 8000cbc:	6896      	ldr	r6, [r2, #8]
 8000cbe:	9d01      	ldr	r5, [sp, #4]
 8000cc0:	4335      	orrs	r5, r6
 8000cc2:	02ff      	lsls	r7, r7, #11
 8000cc4:	d401      	bmi.n	8000cca <HAL_GPIO_Init+0x132>
 8000cc6:	0035      	movs	r5, r6
 8000cc8:	4025      	ands	r5, r4
 8000cca:	4667      	mov	r7, ip
 8000ccc:	6095      	str	r5, [r2, #8]
 8000cce:	68d5      	ldr	r5, [r2, #12]
 8000cd0:	9e01      	ldr	r6, [sp, #4]
 8000cd2:	432e      	orrs	r6, r5
 8000cd4:	02bf      	lsls	r7, r7, #10
 8000cd6:	d401      	bmi.n	8000cdc <HAL_GPIO_Init+0x144>
 8000cd8:	4025      	ands	r5, r4
 8000cda:	002e      	movs	r6, r5
 8000cdc:	60d6      	str	r6, [r2, #12]
 8000cde:	3301      	adds	r3, #1
 8000ce0:	e75d      	b.n	8000b9e <HAL_GPIO_Init+0x6>
 8000ce2:	46c0      	nop			; (mov r8, r8)
 8000ce4:	40021000 	.word	0x40021000
 8000ce8:	40010000 	.word	0x40010000
 8000cec:	48000400 	.word	0x48000400
 8000cf0:	48000800 	.word	0x48000800
 8000cf4:	40010400 	.word	0x40010400

08000cf8 <HAL_GPIO_WritePin>:
 8000cf8:	2a00      	cmp	r2, #0
 8000cfa:	d001      	beq.n	8000d00 <HAL_GPIO_WritePin+0x8>
 8000cfc:	6181      	str	r1, [r0, #24]
 8000cfe:	4770      	bx	lr
 8000d00:	6281      	str	r1, [r0, #40]	; 0x28
 8000d02:	e7fc      	b.n	8000cfe <HAL_GPIO_WritePin+0x6>

08000d04 <HAL_RCC_OscConfig>:
 8000d04:	b5f0      	push	{r4, r5, r6, r7, lr}
 8000d06:	0004      	movs	r4, r0
 8000d08:	b085      	sub	sp, #20
 8000d0a:	2800      	cmp	r0, #0
 8000d0c:	d045      	beq.n	8000d9a <HAL_RCC_OscConfig+0x96>
 8000d0e:	6803      	ldr	r3, [r0, #0]
 8000d10:	07db      	lsls	r3, r3, #31
 8000d12:	d42f      	bmi.n	8000d74 <HAL_RCC_OscConfig+0x70>
 8000d14:	6823      	ldr	r3, [r4, #0]
 8000d16:	079b      	lsls	r3, r3, #30
 8000d18:	d500      	bpl.n	8000d1c <HAL_RCC_OscConfig+0x18>
 8000d1a:	e081      	b.n	8000e20 <HAL_RCC_OscConfig+0x11c>
 8000d1c:	6823      	ldr	r3, [r4, #0]
 8000d1e:	071b      	lsls	r3, r3, #28
 8000d20:	d500      	bpl.n	8000d24 <HAL_RCC_OscConfig+0x20>
 8000d22:	e0bc      	b.n	8000e9e <HAL_RCC_OscConfig+0x19a>
 8000d24:	6823      	ldr	r3, [r4, #0]
 8000d26:	075b      	lsls	r3, r3, #29
 8000d28:	d500      	bpl.n	8000d2c <HAL_RCC_OscConfig+0x28>
 8000d2a:	e0df      	b.n	8000eec <HAL_RCC_OscConfig+0x1e8>
 8000d2c:	6823      	ldr	r3, [r4, #0]
 8000d2e:	06db      	lsls	r3, r3, #27
 8000d30:	d51a      	bpl.n	8000d68 <HAL_RCC_OscConfig+0x64>
 8000d32:	6962      	ldr	r2, [r4, #20]
 8000d34:	2304      	movs	r3, #4
 8000d36:	4db5      	ldr	r5, [pc, #724]	; (800100c <HAL_RCC_OscConfig+0x308>)
 8000d38:	2a01      	cmp	r2, #1
 8000d3a:	d000      	beq.n	8000d3e <HAL_RCC_OscConfig+0x3a>
 8000d3c:	e14a      	b.n	8000fd4 <HAL_RCC_OscConfig+0x2d0>
 8000d3e:	6b69      	ldr	r1, [r5, #52]	; 0x34
 8000d40:	2702      	movs	r7, #2
 8000d42:	430b      	orrs	r3, r1
 8000d44:	636b      	str	r3, [r5, #52]	; 0x34
 8000d46:	6b6b      	ldr	r3, [r5, #52]	; 0x34
 8000d48:	431a      	orrs	r2, r3
 8000d4a:	636a      	str	r2, [r5, #52]	; 0x34
 8000d4c:	f7ff fdf2 	bl	8000934 <HAL_GetTick>
 8000d50:	0006      	movs	r6, r0
 8000d52:	6b6b      	ldr	r3, [r5, #52]	; 0x34
 8000d54:	423b      	tst	r3, r7
 8000d56:	d100      	bne.n	8000d5a <HAL_RCC_OscConfig+0x56>
 8000d58:	e135      	b.n	8000fc6 <HAL_RCC_OscConfig+0x2c2>
 8000d5a:	21f8      	movs	r1, #248	; 0xf8
 8000d5c:	6b6a      	ldr	r2, [r5, #52]	; 0x34
 8000d5e:	69a3      	ldr	r3, [r4, #24]
 8000d60:	438a      	bics	r2, r1
 8000d62:	00db      	lsls	r3, r3, #3
 8000d64:	4313      	orrs	r3, r2
 8000d66:	636b      	str	r3, [r5, #52]	; 0x34
 8000d68:	6a23      	ldr	r3, [r4, #32]
 8000d6a:	2b00      	cmp	r3, #0
 8000d6c:	d000      	beq.n	8000d70 <HAL_RCC_OscConfig+0x6c>
 8000d6e:	e159      	b.n	8001024 <HAL_RCC_OscConfig+0x320>
 8000d70:	2000      	movs	r0, #0
 8000d72:	e02a      	b.n	8000dca <HAL_RCC_OscConfig+0xc6>
 8000d74:	210c      	movs	r1, #12
 8000d76:	4da5      	ldr	r5, [pc, #660]	; (800100c <HAL_RCC_OscConfig+0x308>)
 8000d78:	686a      	ldr	r2, [r5, #4]
 8000d7a:	400a      	ands	r2, r1
 8000d7c:	2a04      	cmp	r2, #4
 8000d7e:	d006      	beq.n	8000d8e <HAL_RCC_OscConfig+0x8a>
 8000d80:	686b      	ldr	r3, [r5, #4]
 8000d82:	400b      	ands	r3, r1
 8000d84:	2b08      	cmp	r3, #8
 8000d86:	d10a      	bne.n	8000d9e <HAL_RCC_OscConfig+0x9a>
 8000d88:	686b      	ldr	r3, [r5, #4]
 8000d8a:	03db      	lsls	r3, r3, #15
 8000d8c:	d507      	bpl.n	8000d9e <HAL_RCC_OscConfig+0x9a>
 8000d8e:	682b      	ldr	r3, [r5, #0]
 8000d90:	039b      	lsls	r3, r3, #14
 8000d92:	d5bf      	bpl.n	8000d14 <HAL_RCC_OscConfig+0x10>
 8000d94:	6863      	ldr	r3, [r4, #4]
 8000d96:	2b00      	cmp	r3, #0
 8000d98:	d1bc      	bne.n	8000d14 <HAL_RCC_OscConfig+0x10>
 8000d9a:	2001      	movs	r0, #1
 8000d9c:	e015      	b.n	8000dca <HAL_RCC_OscConfig+0xc6>
 8000d9e:	6863      	ldr	r3, [r4, #4]
 8000da0:	2b01      	cmp	r3, #1
 8000da2:	d114      	bne.n	8000dce <HAL_RCC_OscConfig+0xca>
 8000da4:	2380      	movs	r3, #128	; 0x80
 8000da6:	682a      	ldr	r2, [r5, #0]
 8000da8:	025b      	lsls	r3, r3, #9
 8000daa:	4313      	orrs	r3, r2
 8000dac:	602b      	str	r3, [r5, #0]
 8000dae:	f7ff fdc1 	bl	8000934 <HAL_GetTick>
 8000db2:	2780      	movs	r7, #128	; 0x80
 8000db4:	0006      	movs	r6, r0
 8000db6:	02bf      	lsls	r7, r7, #10
 8000db8:	682b      	ldr	r3, [r5, #0]
 8000dba:	423b      	tst	r3, r7
 8000dbc:	d1aa      	bne.n	8000d14 <HAL_RCC_OscConfig+0x10>
 8000dbe:	f7ff fdb9 	bl	8000934 <HAL_GetTick>
 8000dc2:	1b80      	subs	r0, r0, r6
 8000dc4:	2864      	cmp	r0, #100	; 0x64
 8000dc6:	d9f7      	bls.n	8000db8 <HAL_RCC_OscConfig+0xb4>
 8000dc8:	2003      	movs	r0, #3
 8000dca:	b005      	add	sp, #20
 8000dcc:	bdf0      	pop	{r4, r5, r6, r7, pc}
 8000dce:	2b00      	cmp	r3, #0
 8000dd0:	d116      	bne.n	8000e00 <HAL_RCC_OscConfig+0xfc>
 8000dd2:	682b      	ldr	r3, [r5, #0]
 8000dd4:	4a8e      	ldr	r2, [pc, #568]	; (8001010 <HAL_RCC_OscConfig+0x30c>)
 8000dd6:	2780      	movs	r7, #128	; 0x80
 8000dd8:	4013      	ands	r3, r2
 8000dda:	602b      	str	r3, [r5, #0]
 8000ddc:	682b      	ldr	r3, [r5, #0]
 8000dde:	4a8d      	ldr	r2, [pc, #564]	; (8001014 <HAL_RCC_OscConfig+0x310>)
 8000de0:	02bf      	lsls	r7, r7, #10
 8000de2:	4013      	ands	r3, r2
 8000de4:	602b      	str	r3, [r5, #0]
 8000de6:	f7ff fda5 	bl	8000934 <HAL_GetTick>
 8000dea:	0006      	movs	r6, r0
 8000dec:	682b      	ldr	r3, [r5, #0]
 8000dee:	423b      	tst	r3, r7
 8000df0:	d100      	bne.n	8000df4 <HAL_RCC_OscConfig+0xf0>
 8000df2:	e78f      	b.n	8000d14 <HAL_RCC_OscConfig+0x10>
 8000df4:	f7ff fd9e 	bl	8000934 <HAL_GetTick>
 8000df8:	1b80      	subs	r0, r0, r6
 8000dfa:	2864      	cmp	r0, #100	; 0x64
 8000dfc:	d9f6      	bls.n	8000dec <HAL_RCC_OscConfig+0xe8>
 8000dfe:	e7e3      	b.n	8000dc8 <HAL_RCC_OscConfig+0xc4>
 8000e00:	2b05      	cmp	r3, #5
 8000e02:	d105      	bne.n	8000e10 <HAL_RCC_OscConfig+0x10c>
 8000e04:	2380      	movs	r3, #128	; 0x80
 8000e06:	682a      	ldr	r2, [r5, #0]
 8000e08:	02db      	lsls	r3, r3, #11
 8000e0a:	4313      	orrs	r3, r2
 8000e0c:	602b      	str	r3, [r5, #0]
 8000e0e:	e7c9      	b.n	8000da4 <HAL_RCC_OscConfig+0xa0>
 8000e10:	682b      	ldr	r3, [r5, #0]
 8000e12:	4a7f      	ldr	r2, [pc, #508]	; (8001010 <HAL_RCC_OscConfig+0x30c>)
 8000e14:	4013      	ands	r3, r2
 8000e16:	602b      	str	r3, [r5, #0]
 8000e18:	682b      	ldr	r3, [r5, #0]
 8000e1a:	4a7e      	ldr	r2, [pc, #504]	; (8001014 <HAL_RCC_OscConfig+0x310>)
 8000e1c:	4013      	ands	r3, r2
 8000e1e:	e7c5      	b.n	8000dac <HAL_RCC_OscConfig+0xa8>
 8000e20:	220c      	movs	r2, #12
 8000e22:	4d7a      	ldr	r5, [pc, #488]	; (800100c <HAL_RCC_OscConfig+0x308>)
 8000e24:	686b      	ldr	r3, [r5, #4]
 8000e26:	4213      	tst	r3, r2
 8000e28:	d006      	beq.n	8000e38 <HAL_RCC_OscConfig+0x134>
 8000e2a:	686b      	ldr	r3, [r5, #4]
 8000e2c:	4013      	ands	r3, r2
 8000e2e:	2b08      	cmp	r3, #8
 8000e30:	d110      	bne.n	8000e54 <HAL_RCC_OscConfig+0x150>
 8000e32:	686b      	ldr	r3, [r5, #4]
 8000e34:	03db      	lsls	r3, r3, #15
 8000e36:	d40d      	bmi.n	8000e54 <HAL_RCC_OscConfig+0x150>
 8000e38:	682b      	ldr	r3, [r5, #0]
 8000e3a:	079b      	lsls	r3, r3, #30
 8000e3c:	d502      	bpl.n	8000e44 <HAL_RCC_OscConfig+0x140>
 8000e3e:	68e3      	ldr	r3, [r4, #12]
 8000e40:	2b01      	cmp	r3, #1
 8000e42:	d1aa      	bne.n	8000d9a <HAL_RCC_OscConfig+0x96>
 8000e44:	21f8      	movs	r1, #248	; 0xf8
 8000e46:	682a      	ldr	r2, [r5, #0]
 8000e48:	6923      	ldr	r3, [r4, #16]
 8000e4a:	438a      	bics	r2, r1
 8000e4c:	00db      	lsls	r3, r3, #3
 8000e4e:	4313      	orrs	r3, r2
 8000e50:	602b      	str	r3, [r5, #0]
 8000e52:	e763      	b.n	8000d1c <HAL_RCC_OscConfig+0x18>
 8000e54:	68e2      	ldr	r2, [r4, #12]
 8000e56:	2301      	movs	r3, #1
 8000e58:	2a00      	cmp	r2, #0
 8000e5a:	d00f      	beq.n	8000e7c <HAL_RCC_OscConfig+0x178>
 8000e5c:	682a      	ldr	r2, [r5, #0]
 8000e5e:	2702      	movs	r7, #2
 8000e60:	4313      	orrs	r3, r2
 8000e62:	602b      	str	r3, [r5, #0]
 8000e64:	f7ff fd66 	bl	8000934 <HAL_GetTick>
 8000e68:	0006      	movs	r6, r0
 8000e6a:	682b      	ldr	r3, [r5, #0]
 8000e6c:	423b      	tst	r3, r7
 8000e6e:	d1e9      	bne.n	8000e44 <HAL_RCC_OscConfig+0x140>
 8000e70:	f7ff fd60 	bl	8000934 <HAL_GetTick>
 8000e74:	1b80      	subs	r0, r0, r6
 8000e76:	2802      	cmp	r0, #2
 8000e78:	d9f7      	bls.n	8000e6a <HAL_RCC_OscConfig+0x166>
 8000e7a:	e7a5      	b.n	8000dc8 <HAL_RCC_OscConfig+0xc4>
 8000e7c:	682a      	ldr	r2, [r5, #0]
 8000e7e:	2702      	movs	r7, #2
 8000e80:	439a      	bics	r2, r3
 8000e82:	602a      	str	r2, [r5, #0]
 8000e84:	f7ff fd56 	bl	8000934 <HAL_GetTick>
 8000e88:	0006      	movs	r6, r0
 8000e8a:	682b      	ldr	r3, [r5, #0]
 8000e8c:	423b      	tst	r3, r7
 8000e8e:	d100      	bne.n	8000e92 <HAL_RCC_OscConfig+0x18e>
 8000e90:	e744      	b.n	8000d1c <HAL_RCC_OscConfig+0x18>
 8000e92:	f7ff fd4f 	bl	8000934 <HAL_GetTick>
 8000e96:	1b80      	subs	r0, r0, r6
 8000e98:	2802      	cmp	r0, #2
 8000e9a:	d9f6      	bls.n	8000e8a <HAL_RCC_OscConfig+0x186>
 8000e9c:	e794      	b.n	8000dc8 <HAL_RCC_OscConfig+0xc4>
 8000e9e:	69e2      	ldr	r2, [r4, #28]
 8000ea0:	2301      	movs	r3, #1
 8000ea2:	4d5a      	ldr	r5, [pc, #360]	; (800100c <HAL_RCC_OscConfig+0x308>)
 8000ea4:	2a00      	cmp	r2, #0
 8000ea6:	d010      	beq.n	8000eca <HAL_RCC_OscConfig+0x1c6>
 8000ea8:	6a6a      	ldr	r2, [r5, #36]	; 0x24
 8000eaa:	2702      	movs	r7, #2
 8000eac:	4313      	orrs	r3, r2
 8000eae:	626b      	str	r3, [r5, #36]	; 0x24
 8000eb0:	f7ff fd40 	bl	8000934 <HAL_GetTick>
 8000eb4:	0006      	movs	r6, r0
 8000eb6:	6a6b      	ldr	r3, [r5, #36]	; 0x24
 8000eb8:	423b      	tst	r3, r7
 8000eba:	d000      	beq.n	8000ebe <HAL_RCC_OscConfig+0x1ba>
 8000ebc:	e732      	b.n	8000d24 <HAL_RCC_OscConfig+0x20>
 8000ebe:	f7ff fd39 	bl	8000934 <HAL_GetTick>
 8000ec2:	1b80      	subs	r0, r0, r6
 8000ec4:	2802      	cmp	r0, #2
 8000ec6:	d9f6      	bls.n	8000eb6 <HAL_RCC_OscConfig+0x1b2>
 8000ec8:	e77e      	b.n	8000dc8 <HAL_RCC_OscConfig+0xc4>
 8000eca:	6a6a      	ldr	r2, [r5, #36]	; 0x24
 8000ecc:	2702      	movs	r7, #2
 8000ece:	439a      	bics	r2, r3
 8000ed0:	626a      	str	r2, [r5, #36]	; 0x24
 8000ed2:	f7ff fd2f 	bl	8000934 <HAL_GetTick>
 8000ed6:	0006      	movs	r6, r0
 8000ed8:	6a6b      	ldr	r3, [r5, #36]	; 0x24
 8000eda:	423b      	tst	r3, r7
 8000edc:	d100      	bne.n	8000ee0 <HAL_RCC_OscConfig+0x1dc>
 8000ede:	e721      	b.n	8000d24 <HAL_RCC_OscConfig+0x20>
 8000ee0:	f7ff fd28 	bl	8000934 <HAL_GetTick>
 8000ee4:	1b80      	subs	r0, r0, r6
 8000ee6:	2802      	cmp	r0, #2
 8000ee8:	d9f6      	bls.n	8000ed8 <HAL_RCC_OscConfig+0x1d4>
 8000eea:	e76d      	b.n	8000dc8 <HAL_RCC_OscConfig+0xc4>
 8000eec:	2280      	movs	r2, #128	; 0x80
 8000eee:	2100      	movs	r1, #0
 8000ef0:	4d46      	ldr	r5, [pc, #280]	; (800100c <HAL_RCC_OscConfig+0x308>)
 8000ef2:	0552      	lsls	r2, r2, #21
 8000ef4:	69eb      	ldr	r3, [r5, #28]
 8000ef6:	9100      	str	r1, [sp, #0]
 8000ef8:	4213      	tst	r3, r2
 8000efa:	d108      	bne.n	8000f0e <HAL_RCC_OscConfig+0x20a>
 8000efc:	69eb      	ldr	r3, [r5, #28]
 8000efe:	4313      	orrs	r3, r2
 8000f00:	61eb      	str	r3, [r5, #28]
 8000f02:	69eb      	ldr	r3, [r5, #28]
 8000f04:	4013      	ands	r3, r2
 8000f06:	9303      	str	r3, [sp, #12]
 8000f08:	9b03      	ldr	r3, [sp, #12]
 8000f0a:	2301      	movs	r3, #1
 8000f0c:	9300      	str	r3, [sp, #0]
 8000f0e:	2780      	movs	r7, #128	; 0x80
 8000f10:	4e41      	ldr	r6, [pc, #260]	; (8001018 <HAL_RCC_OscConfig+0x314>)
 8000f12:	007f      	lsls	r7, r7, #1
 8000f14:	6833      	ldr	r3, [r6, #0]
 8000f16:	423b      	tst	r3, r7
 8000f18:	d006      	beq.n	8000f28 <HAL_RCC_OscConfig+0x224>
 8000f1a:	68a3      	ldr	r3, [r4, #8]
 8000f1c:	2b01      	cmp	r3, #1
 8000f1e:	d113      	bne.n	8000f48 <HAL_RCC_OscConfig+0x244>
 8000f20:	6a2a      	ldr	r2, [r5, #32]
 8000f22:	4313      	orrs	r3, r2
 8000f24:	622b      	str	r3, [r5, #32]
 8000f26:	e030      	b.n	8000f8a <HAL_RCC_OscConfig+0x286>
 8000f28:	6833      	ldr	r3, [r6, #0]
 8000f2a:	433b      	orrs	r3, r7
 8000f2c:	6033      	str	r3, [r6, #0]
 8000f2e:	f7ff fd01 	bl	8000934 <HAL_GetTick>
 8000f32:	9001      	str	r0, [sp, #4]
 8000f34:	6833      	ldr	r3, [r6, #0]
 8000f36:	423b      	tst	r3, r7
 8000f38:	d1ef      	bne.n	8000f1a <HAL_RCC_OscConfig+0x216>
 8000f3a:	f7ff fcfb 	bl	8000934 <HAL_GetTick>
 8000f3e:	9b01      	ldr	r3, [sp, #4]
 8000f40:	1ac0      	subs	r0, r0, r3
 8000f42:	2864      	cmp	r0, #100	; 0x64
 8000f44:	d9f6      	bls.n	8000f34 <HAL_RCC_OscConfig+0x230>
 8000f46:	e73f      	b.n	8000dc8 <HAL_RCC_OscConfig+0xc4>
 8000f48:	2201      	movs	r2, #1
 8000f4a:	2b00      	cmp	r3, #0
 8000f4c:	d114      	bne.n	8000f78 <HAL_RCC_OscConfig+0x274>
 8000f4e:	6a2b      	ldr	r3, [r5, #32]
 8000f50:	2702      	movs	r7, #2
 8000f52:	4393      	bics	r3, r2
 8000f54:	622b      	str	r3, [r5, #32]
 8000f56:	6a2b      	ldr	r3, [r5, #32]
 8000f58:	3203      	adds	r2, #3
 8000f5a:	4393      	bics	r3, r2
 8000f5c:	622b      	str	r3, [r5, #32]
 8000f5e:	f7ff fce9 	bl	8000934 <HAL_GetTick>
 8000f62:	0006      	movs	r6, r0
 8000f64:	6a2b      	ldr	r3, [r5, #32]
 8000f66:	423b      	tst	r3, r7
 8000f68:	d016      	beq.n	8000f98 <HAL_RCC_OscConfig+0x294>
 8000f6a:	f7ff fce3 	bl	8000934 <HAL_GetTick>
 8000f6e:	4b2b      	ldr	r3, [pc, #172]	; (800101c <HAL_RCC_OscConfig+0x318>)
 8000f70:	1b80      	subs	r0, r0, r6
 8000f72:	4298      	cmp	r0, r3
 8000f74:	d9f6      	bls.n	8000f64 <HAL_RCC_OscConfig+0x260>
 8000f76:	e727      	b.n	8000dc8 <HAL_RCC_OscConfig+0xc4>
 8000f78:	2b05      	cmp	r3, #5
 8000f7a:	d116      	bne.n	8000faa <HAL_RCC_OscConfig+0x2a6>
 8000f7c:	6a29      	ldr	r1, [r5, #32]
 8000f7e:	3b01      	subs	r3, #1
 8000f80:	430b      	orrs	r3, r1
 8000f82:	622b      	str	r3, [r5, #32]
 8000f84:	6a2b      	ldr	r3, [r5, #32]
 8000f86:	431a      	orrs	r2, r3
 8000f88:	622a      	str	r2, [r5, #32]
 8000f8a:	f7ff fcd3 	bl	8000934 <HAL_GetTick>
 8000f8e:	2702      	movs	r7, #2
 8000f90:	0006      	movs	r6, r0
 8000f92:	6a2b      	ldr	r3, [r5, #32]
 8000f94:	423b      	tst	r3, r7
 8000f96:	d00f      	beq.n	8000fb8 <HAL_RCC_OscConfig+0x2b4>
 8000f98:	9b00      	ldr	r3, [sp, #0]
 8000f9a:	2b01      	cmp	r3, #1
 8000f9c:	d000      	beq.n	8000fa0 <HAL_RCC_OscConfig+0x29c>
 8000f9e:	e6c5      	b.n	8000d2c <HAL_RCC_OscConfig+0x28>
 8000fa0:	69eb      	ldr	r3, [r5, #28]
 8000fa2:	4a1f      	ldr	r2, [pc, #124]	; (8001020 <HAL_RCC_OscConfig+0x31c>)
 8000fa4:	4013      	ands	r3, r2
 8000fa6:	61eb      	str	r3, [r5, #28]
 8000fa8:	e6c0      	b.n	8000d2c <HAL_RCC_OscConfig+0x28>
 8000faa:	6a2b      	ldr	r3, [r5, #32]
 8000fac:	4393      	bics	r3, r2
 8000fae:	2204      	movs	r2, #4
 8000fb0:	622b      	str	r3, [r5, #32]
 8000fb2:	6a2b      	ldr	r3, [r5, #32]
 8000fb4:	4393      	bics	r3, r2
 8000fb6:	e7b5      	b.n	8000f24 <HAL_RCC_OscConfig+0x220>
 8000fb8:	f7ff fcbc 	bl	8000934 <HAL_GetTick>
 8000fbc:	4b17      	ldr	r3, [pc, #92]	; (800101c <HAL_RCC_OscConfig+0x318>)
 8000fbe:	1b80      	subs	r0, r0, r6
 8000fc0:	4298      	cmp	r0, r3
 8000fc2:	d9e6      	bls.n	8000f92 <HAL_RCC_OscConfig+0x28e>
 8000fc4:	e700      	b.n	8000dc8 <HAL_RCC_OscConfig+0xc4>
 8000fc6:	f7ff fcb5 	bl	8000934 <HAL_GetTick>
 8000fca:	1b80      	subs	r0, r0, r6
 8000fcc:	2802      	cmp	r0, #2
 8000fce:	d800      	bhi.n	8000fd2 <HAL_RCC_OscConfig+0x2ce>
 8000fd0:	e6bf      	b.n	8000d52 <HAL_RCC_OscConfig+0x4e>
 8000fd2:	e6f9      	b.n	8000dc8 <HAL_RCC_OscConfig+0xc4>
 8000fd4:	3205      	adds	r2, #5
 8000fd6:	d103      	bne.n	8000fe0 <HAL_RCC_OscConfig+0x2dc>
 8000fd8:	6b6a      	ldr	r2, [r5, #52]	; 0x34
 8000fda:	439a      	bics	r2, r3
 8000fdc:	636a      	str	r2, [r5, #52]	; 0x34
 8000fde:	e6bc      	b.n	8000d5a <HAL_RCC_OscConfig+0x56>
 8000fe0:	6b6a      	ldr	r2, [r5, #52]	; 0x34
 8000fe2:	2702      	movs	r7, #2
 8000fe4:	4313      	orrs	r3, r2
 8000fe6:	2201      	movs	r2, #1
 8000fe8:	636b      	str	r3, [r5, #52]	; 0x34
 8000fea:	6b6b      	ldr	r3, [r5, #52]	; 0x34
 8000fec:	4393      	bics	r3, r2
 8000fee:	636b      	str	r3, [r5, #52]	; 0x34
 8000ff0:	f7ff fca0 	bl	8000934 <HAL_GetTick>
 8000ff4:	0006      	movs	r6, r0
 8000ff6:	6b6b      	ldr	r3, [r5, #52]	; 0x34
 8000ff8:	423b      	tst	r3, r7
 8000ffa:	d100      	bne.n	8000ffe <HAL_RCC_OscConfig+0x2fa>
 8000ffc:	e6b4      	b.n	8000d68 <HAL_RCC_OscConfig+0x64>
 8000ffe:	f7ff fc99 	bl	8000934 <HAL_GetTick>
 8001002:	1b80      	subs	r0, r0, r6
 8001004:	2802      	cmp	r0, #2
 8001006:	d9f6      	bls.n	8000ff6 <HAL_RCC_OscConfig+0x2f2>
 8001008:	e6de      	b.n	8000dc8 <HAL_RCC_OscConfig+0xc4>
 800100a:	46c0      	nop			; (mov r8, r8)
 800100c:	40021000 	.word	0x40021000
 8001010:	fffeffff 	.word	0xfffeffff
 8001014:	fffbffff 	.word	0xfffbffff
 8001018:	40007000 	.word	0x40007000
 800101c:	00001388 	.word	0x00001388
 8001020:	efffffff 	.word	0xefffffff
 8001024:	210c      	movs	r1, #12
 8001026:	4d34      	ldr	r5, [pc, #208]	; (80010f8 <HAL_RCC_OscConfig+0x3f4>)
 8001028:	686a      	ldr	r2, [r5, #4]
 800102a:	400a      	ands	r2, r1
 800102c:	2a08      	cmp	r2, #8
 800102e:	d047      	beq.n	80010c0 <HAL_RCC_OscConfig+0x3bc>
 8001030:	4a32      	ldr	r2, [pc, #200]	; (80010fc <HAL_RCC_OscConfig+0x3f8>)
 8001032:	2b02      	cmp	r3, #2
 8001034:	d132      	bne.n	800109c <HAL_RCC_OscConfig+0x398>
 8001036:	682b      	ldr	r3, [r5, #0]
 8001038:	2780      	movs	r7, #128	; 0x80
 800103a:	4013      	ands	r3, r2
 800103c:	602b      	str	r3, [r5, #0]
 800103e:	f7ff fc79 	bl	8000934 <HAL_GetTick>
 8001042:	0006      	movs	r6, r0
 8001044:	04bf      	lsls	r7, r7, #18
 8001046:	682b      	ldr	r3, [r5, #0]
 8001048:	423b      	tst	r3, r7
 800104a:	d121      	bne.n	8001090 <HAL_RCC_OscConfig+0x38c>
 800104c:	220f      	movs	r2, #15
 800104e:	6aeb      	ldr	r3, [r5, #44]	; 0x2c
 8001050:	2680      	movs	r6, #128	; 0x80
 8001052:	4393      	bics	r3, r2
 8001054:	6ae2      	ldr	r2, [r4, #44]	; 0x2c
 8001056:	04b6      	lsls	r6, r6, #18
 8001058:	4313      	orrs	r3, r2
 800105a:	62eb      	str	r3, [r5, #44]	; 0x2c
 800105c:	6a61      	ldr	r1, [r4, #36]	; 0x24
 800105e:	6aa3      	ldr	r3, [r4, #40]	; 0x28
 8001060:	686a      	ldr	r2, [r5, #4]
 8001062:	430b      	orrs	r3, r1
 8001064:	4926      	ldr	r1, [pc, #152]	; (8001100 <HAL_RCC_OscConfig+0x3fc>)
 8001066:	400a      	ands	r2, r1
 8001068:	4313      	orrs	r3, r2
 800106a:	606b      	str	r3, [r5, #4]
 800106c:	2380      	movs	r3, #128	; 0x80
 800106e:	682a      	ldr	r2, [r5, #0]
 8001070:	045b      	lsls	r3, r3, #17
 8001072:	4313      	orrs	r3, r2
 8001074:	602b      	str	r3, [r5, #0]
 8001076:	f7ff fc5d 	bl	8000934 <HAL_GetTick>
 800107a:	0004      	movs	r4, r0
 800107c:	682b      	ldr	r3, [r5, #0]
 800107e:	4233      	tst	r3, r6
 8001080:	d000      	beq.n	8001084 <HAL_RCC_OscConfig+0x380>
 8001082:	e675      	b.n	8000d70 <HAL_RCC_OscConfig+0x6c>
 8001084:	f7ff fc56 	bl	8000934 <HAL_GetTick>
 8001088:	1b00      	subs	r0, r0, r4
 800108a:	2802      	cmp	r0, #2
 800108c:	d9f6      	bls.n	800107c <HAL_RCC_OscConfig+0x378>
 800108e:	e69b      	b.n	8000dc8 <HAL_RCC_OscConfig+0xc4>
 8001090:	f7ff fc50 	bl	8000934 <HAL_GetTick>
 8001094:	1b80      	subs	r0, r0, r6
 8001096:	2802      	cmp	r0, #2
 8001098:	d9d5      	bls.n	8001046 <HAL_RCC_OscConfig+0x342>
 800109a:	e695      	b.n	8000dc8 <HAL_RCC_OscConfig+0xc4>
 800109c:	682b      	ldr	r3, [r5, #0]
 800109e:	2680      	movs	r6, #128	; 0x80
 80010a0:	4013      	ands	r3, r2
 80010a2:	602b      	str	r3, [r5, #0]
 80010a4:	f7ff fc46 	bl	8000934 <HAL_GetTick>
 80010a8:	0004      	movs	r4, r0
 80010aa:	04b6      	lsls	r6, r6, #18
 80010ac:	682b      	ldr	r3, [r5, #0]
 80010ae:	4233      	tst	r3, r6
 80010b0:	d100      	bne.n	80010b4 <HAL_RCC_OscConfig+0x3b0>
 80010b2:	e65d      	b.n	8000d70 <HAL_RCC_OscConfig+0x6c>
 80010b4:	f7ff fc3e 	bl	8000934 <HAL_GetTick>
 80010b8:	1b00      	subs	r0, r0, r4
 80010ba:	2802      	cmp	r0, #2
 80010bc:	d9f6      	bls.n	80010ac <HAL_RCC_OscConfig+0x3a8>
 80010be:	e683      	b.n	8000dc8 <HAL_RCC_OscConfig+0xc4>
 80010c0:	0018      	movs	r0, r3
 80010c2:	2b01      	cmp	r3, #1
 80010c4:	d100      	bne.n	80010c8 <HAL_RCC_OscConfig+0x3c4>
 80010c6:	e680      	b.n	8000dca <HAL_RCC_OscConfig+0xc6>
 80010c8:	2180      	movs	r1, #128	; 0x80
 80010ca:	686b      	ldr	r3, [r5, #4]
 80010cc:	6a60      	ldr	r0, [r4, #36]	; 0x24
 80010ce:	0249      	lsls	r1, r1, #9
 80010d0:	6aea      	ldr	r2, [r5, #44]	; 0x2c
 80010d2:	4019      	ands	r1, r3
 80010d4:	4281      	cmp	r1, r0
 80010d6:	d000      	beq.n	80010da <HAL_RCC_OscConfig+0x3d6>
 80010d8:	e65f      	b.n	8000d9a <HAL_RCC_OscConfig+0x96>
 80010da:	210f      	movs	r1, #15
 80010dc:	400a      	ands	r2, r1
 80010de:	6ae1      	ldr	r1, [r4, #44]	; 0x2c
 80010e0:	428a      	cmp	r2, r1
 80010e2:	d000      	beq.n	80010e6 <HAL_RCC_OscConfig+0x3e2>
 80010e4:	e659      	b.n	8000d9a <HAL_RCC_OscConfig+0x96>
 80010e6:	22f0      	movs	r2, #240	; 0xf0
 80010e8:	0392      	lsls	r2, r2, #14
 80010ea:	4013      	ands	r3, r2
 80010ec:	6aa2      	ldr	r2, [r4, #40]	; 0x28
 80010ee:	4293      	cmp	r3, r2
 80010f0:	d100      	bne.n	80010f4 <HAL_RCC_OscConfig+0x3f0>
 80010f2:	e63d      	b.n	8000d70 <HAL_RCC_OscConfig+0x6c>
 80010f4:	e651      	b.n	8000d9a <HAL_RCC_OscConfig+0x96>
 80010f6:	46c0      	nop			; (mov r8, r8)
 80010f8:	40021000 	.word	0x40021000
 80010fc:	feffffff 	.word	0xfeffffff
 8001100:	ffc2ffff 	.word	0xffc2ffff

08001104 <HAL_RCC_GetSysClockFreq>:
 8001104:	b570      	push	{r4, r5, r6, lr}
 8001106:	b088      	sub	sp, #32
 8001108:	2210      	movs	r2, #16
 800110a:	4914      	ldr	r1, [pc, #80]	; (800115c <HAL_RCC_GetSysClockFreq+0x58>)
 800110c:	4668      	mov	r0, sp
 800110e:	ad04      	add	r5, sp, #16
 8001110:	f001 f832 	bl	8002178 <memcpy>
 8001114:	2210      	movs	r2, #16
 8001116:	0028      	movs	r0, r5
 8001118:	4911      	ldr	r1, [pc, #68]	; (8001160 <HAL_RCC_GetSysClockFreq+0x5c>)
 800111a:	f001 f82d 	bl	8002178 <memcpy>
 800111e:	230c      	movs	r3, #12
 8001120:	4e10      	ldr	r6, [pc, #64]	; (8001164 <HAL_RCC_GetSysClockFreq+0x60>)
 8001122:	6872      	ldr	r2, [r6, #4]
 8001124:	4013      	ands	r3, r2
 8001126:	2b04      	cmp	r3, #4
 8001128:	d013      	beq.n	8001152 <HAL_RCC_GetSysClockFreq+0x4e>
 800112a:	2b08      	cmp	r3, #8
 800112c:	d113      	bne.n	8001156 <HAL_RCC_GetSysClockFreq+0x52>
 800112e:	200f      	movs	r0, #15
 8001130:	466b      	mov	r3, sp
 8001132:	0c91      	lsrs	r1, r2, #18
 8001134:	4001      	ands	r1, r0
 8001136:	5c5c      	ldrb	r4, [r3, r1]
 8001138:	6af3      	ldr	r3, [r6, #44]	; 0x2c
 800113a:	4003      	ands	r3, r0
 800113c:	5ce9      	ldrb	r1, [r5, r3]
 800113e:	03d3      	lsls	r3, r2, #15
 8001140:	d505      	bpl.n	800114e <HAL_RCC_GetSysClockFreq+0x4a>
 8001142:	4809      	ldr	r0, [pc, #36]	; (8001168 <HAL_RCC_GetSysClockFreq+0x64>)
 8001144:	f7fe fff4 	bl	8000130 <__udivsi3>
 8001148:	4360      	muls	r0, r4
 800114a:	b008      	add	sp, #32
 800114c:	bd70      	pop	{r4, r5, r6, pc}
 800114e:	4807      	ldr	r0, [pc, #28]	; (800116c <HAL_RCC_GetSysClockFreq+0x68>)
 8001150:	e7fa      	b.n	8001148 <HAL_RCC_GetSysClockFreq+0x44>
 8001152:	4805      	ldr	r0, [pc, #20]	; (8001168 <HAL_RCC_GetSysClockFreq+0x64>)
 8001154:	e7f9      	b.n	800114a <HAL_RCC_GetSysClockFreq+0x46>
 8001156:	4806      	ldr	r0, [pc, #24]	; (8001170 <HAL_RCC_GetSysClockFreq+0x6c>)
 8001158:	e7f7      	b.n	800114a <HAL_RCC_GetSysClockFreq+0x46>
 800115a:	46c0      	nop			; (mov r8, r8)
 800115c:	08002235 	.word	0x08002235
 8001160:	08002246 	.word	0x08002246
 8001164:	40021000 	.word	0x40021000
 8001168:	016e3600 	.word	0x016e3600
 800116c:	003d0900 	.word	0x003d0900
 8001170:	007a1200 	.word	0x007a1200

08001174 <HAL_RCC_ClockConfig>:
 8001174:	b5f7      	push	{r0, r1, r2, r4, r5, r6, r7, lr}
 8001176:	0004      	movs	r4, r0
 8001178:	000e      	movs	r6, r1
 800117a:	2800      	cmp	r0, #0
 800117c:	d101      	bne.n	8001182 <HAL_RCC_ClockConfig+0xe>
 800117e:	2001      	movs	r0, #1
 8001180:	bdfe      	pop	{r1, r2, r3, r4, r5, r6, r7, pc}
 8001182:	2201      	movs	r2, #1
 8001184:	4d37      	ldr	r5, [pc, #220]	; (8001264 <HAL_RCC_ClockConfig+0xf0>)
 8001186:	682b      	ldr	r3, [r5, #0]
 8001188:	4013      	ands	r3, r2
 800118a:	428b      	cmp	r3, r1
 800118c:	d31c      	bcc.n	80011c8 <HAL_RCC_ClockConfig+0x54>
 800118e:	6821      	ldr	r1, [r4, #0]
 8001190:	078b      	lsls	r3, r1, #30
 8001192:	d422      	bmi.n	80011da <HAL_RCC_ClockConfig+0x66>
 8001194:	07cb      	lsls	r3, r1, #31
 8001196:	d42f      	bmi.n	80011f8 <HAL_RCC_ClockConfig+0x84>
 8001198:	2301      	movs	r3, #1
 800119a:	682a      	ldr	r2, [r5, #0]
 800119c:	401a      	ands	r2, r3
 800119e:	42b2      	cmp	r2, r6
 80011a0:	d851      	bhi.n	8001246 <HAL_RCC_ClockConfig+0xd2>
 80011a2:	6823      	ldr	r3, [r4, #0]
 80011a4:	4d30      	ldr	r5, [pc, #192]	; (8001268 <HAL_RCC_ClockConfig+0xf4>)
 80011a6:	075b      	lsls	r3, r3, #29
 80011a8:	d454      	bmi.n	8001254 <HAL_RCC_ClockConfig+0xe0>
 80011aa:	f7ff ffab 	bl	8001104 <HAL_RCC_GetSysClockFreq>
 80011ae:	686b      	ldr	r3, [r5, #4]
 80011b0:	4a2e      	ldr	r2, [pc, #184]	; (800126c <HAL_RCC_ClockConfig+0xf8>)
 80011b2:	061b      	lsls	r3, r3, #24
 80011b4:	0f1b      	lsrs	r3, r3, #28
 80011b6:	5cd3      	ldrb	r3, [r2, r3]
 80011b8:	40d8      	lsrs	r0, r3
 80011ba:	4b2d      	ldr	r3, [pc, #180]	; (8001270 <HAL_RCC_ClockConfig+0xfc>)
 80011bc:	6018      	str	r0, [r3, #0]
 80011be:	2000      	movs	r0, #0
 80011c0:	f7ff fb78 	bl	80008b4 <HAL_InitTick>
 80011c4:	2000      	movs	r0, #0
 80011c6:	e7db      	b.n	8001180 <HAL_RCC_ClockConfig+0xc>
 80011c8:	682b      	ldr	r3, [r5, #0]
 80011ca:	4393      	bics	r3, r2
 80011cc:	430b      	orrs	r3, r1
 80011ce:	602b      	str	r3, [r5, #0]
 80011d0:	682b      	ldr	r3, [r5, #0]
 80011d2:	4013      	ands	r3, r2
 80011d4:	428b      	cmp	r3, r1
 80011d6:	d1d2      	bne.n	800117e <HAL_RCC_ClockConfig+0xa>
 80011d8:	e7d9      	b.n	800118e <HAL_RCC_ClockConfig+0x1a>
 80011da:	4a23      	ldr	r2, [pc, #140]	; (8001268 <HAL_RCC_ClockConfig+0xf4>)
 80011dc:	074b      	lsls	r3, r1, #29
 80011de:	d504      	bpl.n	80011ea <HAL_RCC_ClockConfig+0x76>
 80011e0:	23e0      	movs	r3, #224	; 0xe0
 80011e2:	6850      	ldr	r0, [r2, #4]
 80011e4:	00db      	lsls	r3, r3, #3
 80011e6:	4303      	orrs	r3, r0
 80011e8:	6053      	str	r3, [r2, #4]
 80011ea:	20f0      	movs	r0, #240	; 0xf0
 80011ec:	6853      	ldr	r3, [r2, #4]
 80011ee:	4383      	bics	r3, r0
 80011f0:	68a0      	ldr	r0, [r4, #8]
 80011f2:	4303      	orrs	r3, r0
 80011f4:	6053      	str	r3, [r2, #4]
 80011f6:	e7cd      	b.n	8001194 <HAL_RCC_ClockConfig+0x20>
 80011f8:	4f1b      	ldr	r7, [pc, #108]	; (8001268 <HAL_RCC_ClockConfig+0xf4>)
 80011fa:	6862      	ldr	r2, [r4, #4]
 80011fc:	683b      	ldr	r3, [r7, #0]
 80011fe:	2a01      	cmp	r2, #1
 8001200:	d119      	bne.n	8001236 <HAL_RCC_ClockConfig+0xc2>
 8001202:	039b      	lsls	r3, r3, #14
 8001204:	d5bb      	bpl.n	800117e <HAL_RCC_ClockConfig+0xa>
 8001206:	2103      	movs	r1, #3
 8001208:	687b      	ldr	r3, [r7, #4]
 800120a:	438b      	bics	r3, r1
 800120c:	4313      	orrs	r3, r2
 800120e:	607b      	str	r3, [r7, #4]
 8001210:	f7ff fb90 	bl	8000934 <HAL_GetTick>
 8001214:	9001      	str	r0, [sp, #4]
 8001216:	230c      	movs	r3, #12
 8001218:	687a      	ldr	r2, [r7, #4]
 800121a:	401a      	ands	r2, r3
 800121c:	6863      	ldr	r3, [r4, #4]
 800121e:	009b      	lsls	r3, r3, #2
 8001220:	429a      	cmp	r2, r3
 8001222:	d0b9      	beq.n	8001198 <HAL_RCC_ClockConfig+0x24>
 8001224:	f7ff fb86 	bl	8000934 <HAL_GetTick>
 8001228:	9b01      	ldr	r3, [sp, #4]
 800122a:	1ac0      	subs	r0, r0, r3
 800122c:	4b11      	ldr	r3, [pc, #68]	; (8001274 <HAL_RCC_ClockConfig+0x100>)
 800122e:	4298      	cmp	r0, r3
 8001230:	d9f1      	bls.n	8001216 <HAL_RCC_ClockConfig+0xa2>
 8001232:	2003      	movs	r0, #3
 8001234:	e7a4      	b.n	8001180 <HAL_RCC_ClockConfig+0xc>
 8001236:	2a02      	cmp	r2, #2
 8001238:	d102      	bne.n	8001240 <HAL_RCC_ClockConfig+0xcc>
 800123a:	019b      	lsls	r3, r3, #6
 800123c:	d4e3      	bmi.n	8001206 <HAL_RCC_ClockConfig+0x92>
 800123e:	e79e      	b.n	800117e <HAL_RCC_ClockConfig+0xa>
 8001240:	079b      	lsls	r3, r3, #30
 8001242:	d4e0      	bmi.n	8001206 <HAL_RCC_ClockConfig+0x92>
 8001244:	e79b      	b.n	800117e <HAL_RCC_ClockConfig+0xa>
 8001246:	682a      	ldr	r2, [r5, #0]
 8001248:	439a      	bics	r2, r3
 800124a:	602a      	str	r2, [r5, #0]
 800124c:	682a      	ldr	r2, [r5, #0]
 800124e:	421a      	tst	r2, r3
 8001250:	d0a7      	beq.n	80011a2 <HAL_RCC_ClockConfig+0x2e>
 8001252:	e794      	b.n	800117e <HAL_RCC_ClockConfig+0xa>
 8001254:	686b      	ldr	r3, [r5, #4]
 8001256:	4a08      	ldr	r2, [pc, #32]	; (8001278 <HAL_RCC_ClockConfig+0x104>)
 8001258:	4013      	ands	r3, r2
 800125a:	68e2      	ldr	r2, [r4, #12]
 800125c:	4313      	orrs	r3, r2
 800125e:	606b      	str	r3, [r5, #4]
 8001260:	e7a3      	b.n	80011aa <HAL_RCC_ClockConfig+0x36>
 8001262:	46c0      	nop			; (mov r8, r8)
 8001264:	40022000 	.word	0x40022000
 8001268:	40021000 	.word	0x40021000
 800126c:	0800221d 	.word	0x0800221d
 8001270:	20000004 	.word	0x20000004
 8001274:	00001388 	.word	0x00001388
 8001278:	fffff8ff 	.word	0xfffff8ff

0800127c <HAL_RCC_GetPCLK1Freq>:
 800127c:	4b04      	ldr	r3, [pc, #16]	; (8001290 <HAL_RCC_GetPCLK1Freq+0x14>)
 800127e:	4a05      	ldr	r2, [pc, #20]	; (8001294 <HAL_RCC_GetPCLK1Freq+0x18>)
 8001280:	685b      	ldr	r3, [r3, #4]
 8001282:	055b      	lsls	r3, r3, #21
 8001284:	0f5b      	lsrs	r3, r3, #29
 8001286:	5cd3      	ldrb	r3, [r2, r3]
 8001288:	4a03      	ldr	r2, [pc, #12]	; (8001298 <HAL_RCC_GetPCLK1Freq+0x1c>)
 800128a:	6810      	ldr	r0, [r2, #0]
 800128c:	40d8      	lsrs	r0, r3
 800128e:	4770      	bx	lr
 8001290:	40021000 	.word	0x40021000
 8001294:	0800222d 	.word	0x0800222d
 8001298:	20000004 	.word	0x20000004

0800129c <HAL_RCCEx_PeriphCLKConfig>:
 800129c:	b5f0      	push	{r4, r5, r6, r7, lr}
 800129e:	6803      	ldr	r3, [r0, #0]
 80012a0:	0005      	movs	r5, r0
 80012a2:	b085      	sub	sp, #20
 80012a4:	03db      	lsls	r3, r3, #15
 80012a6:	d52a      	bpl.n	80012fe <HAL_RCCEx_PeriphCLKConfig+0x62>
 80012a8:	2280      	movs	r2, #128	; 0x80
 80012aa:	2100      	movs	r1, #0
 80012ac:	4c38      	ldr	r4, [pc, #224]	; (8001390 <HAL_RCCEx_PeriphCLKConfig+0xf4>)
 80012ae:	0552      	lsls	r2, r2, #21
 80012b0:	69e3      	ldr	r3, [r4, #28]
 80012b2:	9100      	str	r1, [sp, #0]
 80012b4:	4213      	tst	r3, r2
 80012b6:	d108      	bne.n	80012ca <HAL_RCCEx_PeriphCLKConfig+0x2e>
 80012b8:	69e3      	ldr	r3, [r4, #28]
 80012ba:	4313      	orrs	r3, r2
 80012bc:	61e3      	str	r3, [r4, #28]
 80012be:	69e3      	ldr	r3, [r4, #28]
 80012c0:	4013      	ands	r3, r2
 80012c2:	9303      	str	r3, [sp, #12]
 80012c4:	9b03      	ldr	r3, [sp, #12]
 80012c6:	2301      	movs	r3, #1
 80012c8:	9300      	str	r3, [sp, #0]
 80012ca:	2780      	movs	r7, #128	; 0x80
 80012cc:	4e31      	ldr	r6, [pc, #196]	; (8001394 <HAL_RCCEx_PeriphCLKConfig+0xf8>)
 80012ce:	007f      	lsls	r7, r7, #1
 80012d0:	6833      	ldr	r3, [r6, #0]
 80012d2:	423b      	tst	r3, r7
 80012d4:	d028      	beq.n	8001328 <HAL_RCCEx_PeriphCLKConfig+0x8c>
 80012d6:	6a22      	ldr	r2, [r4, #32]
 80012d8:	23c0      	movs	r3, #192	; 0xc0
 80012da:	0011      	movs	r1, r2
 80012dc:	009b      	lsls	r3, r3, #2
 80012de:	4e2e      	ldr	r6, [pc, #184]	; (8001398 <HAL_RCCEx_PeriphCLKConfig+0xfc>)
 80012e0:	4019      	ands	r1, r3
 80012e2:	421a      	tst	r2, r3
 80012e4:	d132      	bne.n	800134c <HAL_RCCEx_PeriphCLKConfig+0xb0>
 80012e6:	6a23      	ldr	r3, [r4, #32]
 80012e8:	401e      	ands	r6, r3
 80012ea:	686b      	ldr	r3, [r5, #4]
 80012ec:	431e      	orrs	r6, r3
 80012ee:	9b00      	ldr	r3, [sp, #0]
 80012f0:	6226      	str	r6, [r4, #32]
 80012f2:	2b01      	cmp	r3, #1
 80012f4:	d103      	bne.n	80012fe <HAL_RCCEx_PeriphCLKConfig+0x62>
 80012f6:	69e3      	ldr	r3, [r4, #28]
 80012f8:	4a28      	ldr	r2, [pc, #160]	; (800139c <HAL_RCCEx_PeriphCLKConfig+0x100>)
 80012fa:	4013      	ands	r3, r2
 80012fc:	61e3      	str	r3, [r4, #28]
 80012fe:	682a      	ldr	r2, [r5, #0]
 8001300:	07d3      	lsls	r3, r2, #31
 8001302:	d506      	bpl.n	8001312 <HAL_RCCEx_PeriphCLKConfig+0x76>
 8001304:	2003      	movs	r0, #3
 8001306:	4922      	ldr	r1, [pc, #136]	; (8001390 <HAL_RCCEx_PeriphCLKConfig+0xf4>)
 8001308:	6b0b      	ldr	r3, [r1, #48]	; 0x30
 800130a:	4383      	bics	r3, r0
 800130c:	68a8      	ldr	r0, [r5, #8]
 800130e:	4303      	orrs	r3, r0
 8001310:	630b      	str	r3, [r1, #48]	; 0x30
 8001312:	2000      	movs	r0, #0
 8001314:	0693      	lsls	r3, r2, #26
 8001316:	d517      	bpl.n	8001348 <HAL_RCCEx_PeriphCLKConfig+0xac>
 8001318:	2110      	movs	r1, #16
 800131a:	4a1d      	ldr	r2, [pc, #116]	; (8001390 <HAL_RCCEx_PeriphCLKConfig+0xf4>)
 800131c:	6b13      	ldr	r3, [r2, #48]	; 0x30
 800131e:	438b      	bics	r3, r1
 8001320:	68e9      	ldr	r1, [r5, #12]
 8001322:	430b      	orrs	r3, r1
 8001324:	6313      	str	r3, [r2, #48]	; 0x30
 8001326:	e00f      	b.n	8001348 <HAL_RCCEx_PeriphCLKConfig+0xac>
 8001328:	6833      	ldr	r3, [r6, #0]
 800132a:	433b      	orrs	r3, r7
 800132c:	6033      	str	r3, [r6, #0]
 800132e:	f7ff fb01 	bl	8000934 <HAL_GetTick>
 8001332:	9001      	str	r0, [sp, #4]
 8001334:	6833      	ldr	r3, [r6, #0]
 8001336:	423b      	tst	r3, r7
 8001338:	d1cd      	bne.n	80012d6 <HAL_RCCEx_PeriphCLKConfig+0x3a>
 800133a:	f7ff fafb 	bl	8000934 <HAL_GetTick>
 800133e:	9b01      	ldr	r3, [sp, #4]
 8001340:	1ac0      	subs	r0, r0, r3
 8001342:	2864      	cmp	r0, #100	; 0x64
 8001344:	d9f6      	bls.n	8001334 <HAL_RCCEx_PeriphCLKConfig+0x98>
 8001346:	2003      	movs	r0, #3
 8001348:	b005      	add	sp, #20
 800134a:	bdf0      	pop	{r4, r5, r6, r7, pc}
 800134c:	686a      	ldr	r2, [r5, #4]
 800134e:	4013      	ands	r3, r2
 8001350:	428b      	cmp	r3, r1
 8001352:	d0c8      	beq.n	80012e6 <HAL_RCCEx_PeriphCLKConfig+0x4a>
 8001354:	2380      	movs	r3, #128	; 0x80
 8001356:	6a22      	ldr	r2, [r4, #32]
 8001358:	6a20      	ldr	r0, [r4, #32]
 800135a:	0011      	movs	r1, r2
 800135c:	025b      	lsls	r3, r3, #9
 800135e:	4303      	orrs	r3, r0
 8001360:	6223      	str	r3, [r4, #32]
 8001362:	6a23      	ldr	r3, [r4, #32]
 8001364:	480e      	ldr	r0, [pc, #56]	; (80013a0 <HAL_RCCEx_PeriphCLKConfig+0x104>)
 8001366:	4031      	ands	r1, r6
 8001368:	4003      	ands	r3, r0
 800136a:	6223      	str	r3, [r4, #32]
 800136c:	6221      	str	r1, [r4, #32]
 800136e:	07d3      	lsls	r3, r2, #31
 8001370:	d5b9      	bpl.n	80012e6 <HAL_RCCEx_PeriphCLKConfig+0x4a>
 8001372:	f7ff fadf 	bl	8000934 <HAL_GetTick>
 8001376:	0007      	movs	r7, r0
 8001378:	2202      	movs	r2, #2
 800137a:	6a23      	ldr	r3, [r4, #32]
 800137c:	4213      	tst	r3, r2
 800137e:	d1b2      	bne.n	80012e6 <HAL_RCCEx_PeriphCLKConfig+0x4a>
 8001380:	f7ff fad8 	bl	8000934 <HAL_GetTick>
 8001384:	4b07      	ldr	r3, [pc, #28]	; (80013a4 <HAL_RCCEx_PeriphCLKConfig+0x108>)
 8001386:	1bc0      	subs	r0, r0, r7
 8001388:	4298      	cmp	r0, r3
 800138a:	d9f5      	bls.n	8001378 <HAL_RCCEx_PeriphCLKConfig+0xdc>
 800138c:	e7db      	b.n	8001346 <HAL_RCCEx_PeriphCLKConfig+0xaa>
 800138e:	46c0      	nop			; (mov r8, r8)
 8001390:	40021000 	.word	0x40021000
 8001394:	40007000 	.word	0x40007000
 8001398:	fffffcff 	.word	0xfffffcff
 800139c:	efffffff 	.word	0xefffffff
 80013a0:	fffeffff 	.word	0xfffeffff
 80013a4:	00001388 	.word	0x00001388

080013a8 <HAL_RTC_AlarmIRQHandler>:
 80013a8:	6803      	ldr	r3, [r0, #0]
 80013aa:	b510      	push	{r4, lr}
 80013ac:	689a      	ldr	r2, [r3, #8]
 80013ae:	0004      	movs	r4, r0
 80013b0:	04d2      	lsls	r2, r2, #19
 80013b2:	d50a      	bpl.n	80013ca <HAL_RTC_AlarmIRQHandler+0x22>
 80013b4:	68db      	ldr	r3, [r3, #12]
 80013b6:	05db      	lsls	r3, r3, #23
 80013b8:	d507      	bpl.n	80013ca <HAL_RTC_AlarmIRQHandler+0x22>
 80013ba:	f7ff f971 	bl	80006a0 <HAL_RTC_AlarmAEventCallback>
 80013be:	6821      	ldr	r1, [r4, #0]
 80013c0:	4b05      	ldr	r3, [pc, #20]	; (80013d8 <HAL_RTC_AlarmIRQHandler+0x30>)
 80013c2:	68ca      	ldr	r2, [r1, #12]
 80013c4:	b2d2      	uxtb	r2, r2
 80013c6:	4313      	orrs	r3, r2
 80013c8:	60cb      	str	r3, [r1, #12]
 80013ca:	2280      	movs	r2, #128	; 0x80
 80013cc:	4b03      	ldr	r3, [pc, #12]	; (80013dc <HAL_RTC_AlarmIRQHandler+0x34>)
 80013ce:	0292      	lsls	r2, r2, #10
 80013d0:	615a      	str	r2, [r3, #20]
 80013d2:	2301      	movs	r3, #1
 80013d4:	7763      	strb	r3, [r4, #29]
 80013d6:	bd10      	pop	{r4, pc}
 80013d8:	fffffe7f 	.word	0xfffffe7f
 80013dc:	40010400 	.word	0x40010400

080013e0 <HAL_RTC_WaitForSynchro>:
 80013e0:	21a0      	movs	r1, #160	; 0xa0
 80013e2:	6802      	ldr	r2, [r0, #0]
 80013e4:	b5f8      	push	{r3, r4, r5, r6, r7, lr}
 80013e6:	68d3      	ldr	r3, [r2, #12]
 80013e8:	0004      	movs	r4, r0
 80013ea:	438b      	bics	r3, r1
 80013ec:	60d3      	str	r3, [r2, #12]
 80013ee:	f7ff faa1 	bl	8000934 <HAL_GetTick>
 80013f2:	27fa      	movs	r7, #250	; 0xfa
 80013f4:	0005      	movs	r5, r0
 80013f6:	2620      	movs	r6, #32
 80013f8:	00bf      	lsls	r7, r7, #2
 80013fa:	6823      	ldr	r3, [r4, #0]
 80013fc:	68db      	ldr	r3, [r3, #12]
 80013fe:	4233      	tst	r3, r6
 8001400:	d001      	beq.n	8001406 <HAL_RTC_WaitForSynchro+0x26>
 8001402:	2000      	movs	r0, #0
 8001404:	bdf8      	pop	{r3, r4, r5, r6, r7, pc}
 8001406:	f7ff fa95 	bl	8000934 <HAL_GetTick>
 800140a:	1b40      	subs	r0, r0, r5
 800140c:	42b8      	cmp	r0, r7
 800140e:	d9f4      	bls.n	80013fa <HAL_RTC_WaitForSynchro+0x1a>
 8001410:	2003      	movs	r0, #3
 8001412:	e7f7      	b.n	8001404 <HAL_RTC_WaitForSynchro+0x24>

08001414 <RTC_EnterInitMode>:
 8001414:	b5f8      	push	{r3, r4, r5, r6, r7, lr}
 8001416:	2640      	movs	r6, #64	; 0x40
 8001418:	6803      	ldr	r3, [r0, #0]
 800141a:	0004      	movs	r4, r0
 800141c:	68da      	ldr	r2, [r3, #12]
 800141e:	4232      	tst	r2, r6
 8001420:	d001      	beq.n	8001426 <RTC_EnterInitMode+0x12>
 8001422:	2000      	movs	r0, #0
 8001424:	bdf8      	pop	{r3, r4, r5, r6, r7, pc}
 8001426:	2201      	movs	r2, #1
 8001428:	4252      	negs	r2, r2
 800142a:	60da      	str	r2, [r3, #12]
 800142c:	f7ff fa82 	bl	8000934 <HAL_GetTick>
 8001430:	27fa      	movs	r7, #250	; 0xfa
 8001432:	0005      	movs	r5, r0
 8001434:	00bf      	lsls	r7, r7, #2
 8001436:	6823      	ldr	r3, [r4, #0]
 8001438:	68db      	ldr	r3, [r3, #12]
 800143a:	4233      	tst	r3, r6
 800143c:	d1f1      	bne.n	8001422 <RTC_EnterInitMode+0xe>
 800143e:	f7ff fa79 	bl	8000934 <HAL_GetTick>
 8001442:	1b40      	subs	r0, r0, r5
 8001444:	42b8      	cmp	r0, r7
 8001446:	d9f6      	bls.n	8001436 <RTC_EnterInitMode+0x22>
 8001448:	2003      	movs	r0, #3
 800144a:	e7eb      	b.n	8001424 <RTC_EnterInitMode+0x10>

0800144c <HAL_RTC_Init>:
 800144c:	b570      	push	{r4, r5, r6, lr}
 800144e:	0004      	movs	r4, r0
 8001450:	2501      	movs	r5, #1
 8001452:	2800      	cmp	r0, #0
 8001454:	d018      	beq.n	8001488 <HAL_RTC_Init+0x3c>
 8001456:	7f43      	ldrb	r3, [r0, #29]
 8001458:	b2da      	uxtb	r2, r3
 800145a:	2b00      	cmp	r3, #0
 800145c:	d102      	bne.n	8001464 <HAL_RTC_Init+0x18>
 800145e:	7702      	strb	r2, [r0, #28]
 8001460:	f7ff f93e 	bl	80006e0 <HAL_RTC_MspInit>
 8001464:	2302      	movs	r3, #2
 8001466:	22ca      	movs	r2, #202	; 0xca
 8001468:	7763      	strb	r3, [r4, #29]
 800146a:	6823      	ldr	r3, [r4, #0]
 800146c:	0020      	movs	r0, r4
 800146e:	625a      	str	r2, [r3, #36]	; 0x24
 8001470:	3a77      	subs	r2, #119	; 0x77
 8001472:	625a      	str	r2, [r3, #36]	; 0x24
 8001474:	f7ff ffce 	bl	8001414 <RTC_EnterInitMode>
 8001478:	6823      	ldr	r3, [r4, #0]
 800147a:	1e05      	subs	r5, r0, #0
 800147c:	d006      	beq.n	800148c <HAL_RTC_Init+0x40>
 800147e:	22ff      	movs	r2, #255	; 0xff
 8001480:	625a      	str	r2, [r3, #36]	; 0x24
 8001482:	2304      	movs	r3, #4
 8001484:	2501      	movs	r5, #1
 8001486:	7763      	strb	r3, [r4, #29]
 8001488:	0028      	movs	r0, r5
 800148a:	bd70      	pop	{r4, r5, r6, pc}
 800148c:	689a      	ldr	r2, [r3, #8]
 800148e:	4917      	ldr	r1, [pc, #92]	; (80014ec <HAL_RTC_Init+0xa0>)
 8001490:	6920      	ldr	r0, [r4, #16]
 8001492:	400a      	ands	r2, r1
 8001494:	609a      	str	r2, [r3, #8]
 8001496:	6862      	ldr	r2, [r4, #4]
 8001498:	6899      	ldr	r1, [r3, #8]
 800149a:	4302      	orrs	r2, r0
 800149c:	6960      	ldr	r0, [r4, #20]
 800149e:	4302      	orrs	r2, r0
 80014a0:	430a      	orrs	r2, r1
 80014a2:	609a      	str	r2, [r3, #8]
 80014a4:	68e2      	ldr	r2, [r4, #12]
 80014a6:	611a      	str	r2, [r3, #16]
 80014a8:	68a2      	ldr	r2, [r4, #8]
 80014aa:	6919      	ldr	r1, [r3, #16]
 80014ac:	0412      	lsls	r2, r2, #16
 80014ae:	430a      	orrs	r2, r1
 80014b0:	2180      	movs	r1, #128	; 0x80
 80014b2:	611a      	str	r2, [r3, #16]
 80014b4:	68da      	ldr	r2, [r3, #12]
 80014b6:	438a      	bics	r2, r1
 80014b8:	60da      	str	r2, [r3, #12]
 80014ba:	689b      	ldr	r3, [r3, #8]
 80014bc:	069b      	lsls	r3, r3, #26
 80014be:	d406      	bmi.n	80014ce <HAL_RTC_Init+0x82>
 80014c0:	0020      	movs	r0, r4
 80014c2:	f7ff ff8d 	bl	80013e0 <HAL_RTC_WaitForSynchro>
 80014c6:	2800      	cmp	r0, #0
 80014c8:	d001      	beq.n	80014ce <HAL_RTC_Init+0x82>
 80014ca:	6823      	ldr	r3, [r4, #0]
 80014cc:	e7d7      	b.n	800147e <HAL_RTC_Init+0x32>
 80014ce:	6823      	ldr	r3, [r4, #0]
 80014d0:	4907      	ldr	r1, [pc, #28]	; (80014f0 <HAL_RTC_Init+0xa4>)
 80014d2:	6c1a      	ldr	r2, [r3, #64]	; 0x40
 80014d4:	400a      	ands	r2, r1
 80014d6:	641a      	str	r2, [r3, #64]	; 0x40
 80014d8:	6c1a      	ldr	r2, [r3, #64]	; 0x40
 80014da:	69a1      	ldr	r1, [r4, #24]
 80014dc:	430a      	orrs	r2, r1
 80014de:	641a      	str	r2, [r3, #64]	; 0x40
 80014e0:	22ff      	movs	r2, #255	; 0xff
 80014e2:	625a      	str	r2, [r3, #36]	; 0x24
 80014e4:	2301      	movs	r3, #1
 80014e6:	7763      	strb	r3, [r4, #29]
 80014e8:	e7ce      	b.n	8001488 <HAL_RTC_Init+0x3c>
 80014ea:	46c0      	nop			; (mov r8, r8)
 80014ec:	ff8fffbf 	.word	0xff8fffbf
 80014f0:	fffbffff 	.word	0xfffbffff

080014f4 <RTC_ByteToBcd2>:
 80014f4:	2300      	movs	r3, #0
 80014f6:	2809      	cmp	r0, #9
 80014f8:	d803      	bhi.n	8001502 <RTC_ByteToBcd2+0xe>
 80014fa:	011b      	lsls	r3, r3, #4
 80014fc:	4318      	orrs	r0, r3
 80014fe:	b2c0      	uxtb	r0, r0
 8001500:	4770      	bx	lr
 8001502:	380a      	subs	r0, #10
 8001504:	3301      	adds	r3, #1
 8001506:	b2c0      	uxtb	r0, r0
 8001508:	e7f5      	b.n	80014f6 <RTC_ByteToBcd2+0x2>
	...

0800150c <HAL_RTC_SetTime>:
 800150c:	2302      	movs	r3, #2
 800150e:	b5f7      	push	{r0, r1, r2, r4, r5, r6, r7, lr}
 8001510:	000d      	movs	r5, r1
 8001512:	7f01      	ldrb	r1, [r0, #28]
 8001514:	0004      	movs	r4, r0
 8001516:	001e      	movs	r6, r3
 8001518:	2901      	cmp	r1, #1
 800151a:	d033      	beq.n	8001584 <HAL_RTC_SetTime+0x78>
 800151c:	2101      	movs	r1, #1
 800151e:	7743      	strb	r3, [r0, #29]
 8001520:	7701      	strb	r1, [r0, #28]
 8001522:	78a9      	ldrb	r1, [r5, #2]
 8001524:	6806      	ldr	r6, [r0, #0]
 8001526:	786f      	ldrb	r7, [r5, #1]
 8001528:	7828      	ldrb	r0, [r5, #0]
 800152a:	333e      	adds	r3, #62	; 0x3e
 800152c:	9100      	str	r1, [sp, #0]
 800152e:	2a00      	cmp	r2, #0
 8001530:	d12a      	bne.n	8001588 <HAL_RTC_SetTime+0x7c>
 8001532:	68b2      	ldr	r2, [r6, #8]
 8001534:	0011      	movs	r1, r2
 8001536:	4019      	ands	r1, r3
 8001538:	421a      	tst	r2, r3
 800153a:	d100      	bne.n	800153e <HAL_RTC_SetTime+0x32>
 800153c:	70e9      	strb	r1, [r5, #3]
 800153e:	f7ff ffd9 	bl	80014f4 <RTC_ByteToBcd2>
 8001542:	9001      	str	r0, [sp, #4]
 8001544:	0038      	movs	r0, r7
 8001546:	f7ff ffd5 	bl	80014f4 <RTC_ByteToBcd2>
 800154a:	0007      	movs	r7, r0
 800154c:	9800      	ldr	r0, [sp, #0]
 800154e:	f7ff ffd1 	bl	80014f4 <RTC_ByteToBcd2>
 8001552:	78eb      	ldrb	r3, [r5, #3]
 8001554:	9a01      	ldr	r2, [sp, #4]
 8001556:	041b      	lsls	r3, r3, #16
 8001558:	4303      	orrs	r3, r0
 800155a:	0410      	lsls	r0, r2, #16
 800155c:	4303      	orrs	r3, r0
 800155e:	023f      	lsls	r7, r7, #8
 8001560:	431f      	orrs	r7, r3
 8001562:	23ca      	movs	r3, #202	; 0xca
 8001564:	6273      	str	r3, [r6, #36]	; 0x24
 8001566:	3b77      	subs	r3, #119	; 0x77
 8001568:	6273      	str	r3, [r6, #36]	; 0x24
 800156a:	0020      	movs	r0, r4
 800156c:	f7ff ff52 	bl	8001414 <RTC_EnterInitMode>
 8001570:	6823      	ldr	r3, [r4, #0]
 8001572:	1e06      	subs	r6, r0, #0
 8001574:	d017      	beq.n	80015a6 <HAL_RTC_SetTime+0x9a>
 8001576:	22ff      	movs	r2, #255	; 0xff
 8001578:	625a      	str	r2, [r3, #36]	; 0x24
 800157a:	2304      	movs	r3, #4
 800157c:	7763      	strb	r3, [r4, #29]
 800157e:	2300      	movs	r3, #0
 8001580:	7723      	strb	r3, [r4, #28]
 8001582:	2601      	movs	r6, #1
 8001584:	0030      	movs	r0, r6
 8001586:	bdfe      	pop	{r1, r2, r3, r4, r5, r6, r7, pc}
 8001588:	68b2      	ldr	r2, [r6, #8]
 800158a:	0011      	movs	r1, r2
 800158c:	4019      	ands	r1, r3
 800158e:	421a      	tst	r2, r3
 8001590:	d100      	bne.n	8001594 <HAL_RTC_SetTime+0x88>
 8001592:	70e9      	strb	r1, [r5, #3]
 8001594:	0400      	lsls	r0, r0, #16
 8001596:	023f      	lsls	r7, r7, #8
 8001598:	4307      	orrs	r7, r0
 800159a:	9b00      	ldr	r3, [sp, #0]
 800159c:	78e8      	ldrb	r0, [r5, #3]
 800159e:	431f      	orrs	r7, r3
 80015a0:	0400      	lsls	r0, r0, #16
 80015a2:	4307      	orrs	r7, r0
 80015a4:	e7dd      	b.n	8001562 <HAL_RTC_SetTime+0x56>
 80015a6:	4814      	ldr	r0, [pc, #80]	; (80015f8 <HAL_RTC_SetTime+0xec>)
 80015a8:	4914      	ldr	r1, [pc, #80]	; (80015fc <HAL_RTC_SetTime+0xf0>)
 80015aa:	4007      	ands	r7, r0
 80015ac:	601f      	str	r7, [r3, #0]
 80015ae:	689a      	ldr	r2, [r3, #8]
 80015b0:	6928      	ldr	r0, [r5, #16]
 80015b2:	400a      	ands	r2, r1
 80015b4:	609a      	str	r2, [r3, #8]
 80015b6:	68ea      	ldr	r2, [r5, #12]
 80015b8:	6899      	ldr	r1, [r3, #8]
 80015ba:	4302      	orrs	r2, r0
 80015bc:	430a      	orrs	r2, r1
 80015be:	2180      	movs	r1, #128	; 0x80
 80015c0:	609a      	str	r2, [r3, #8]
 80015c2:	68da      	ldr	r2, [r3, #12]
 80015c4:	438a      	bics	r2, r1
 80015c6:	60da      	str	r2, [r3, #12]
 80015c8:	689b      	ldr	r3, [r3, #8]
 80015ca:	069b      	lsls	r3, r3, #26
 80015cc:	d40b      	bmi.n	80015e6 <HAL_RTC_SetTime+0xda>
 80015ce:	0020      	movs	r0, r4
 80015d0:	f7ff ff06 	bl	80013e0 <HAL_RTC_WaitForSynchro>
 80015d4:	2800      	cmp	r0, #0
 80015d6:	d006      	beq.n	80015e6 <HAL_RTC_SetTime+0xda>
 80015d8:	22ff      	movs	r2, #255	; 0xff
 80015da:	6823      	ldr	r3, [r4, #0]
 80015dc:	625a      	str	r2, [r3, #36]	; 0x24
 80015de:	2304      	movs	r3, #4
 80015e0:	7726      	strb	r6, [r4, #28]
 80015e2:	7763      	strb	r3, [r4, #29]
 80015e4:	e7cd      	b.n	8001582 <HAL_RTC_SetTime+0x76>
 80015e6:	22ff      	movs	r2, #255	; 0xff
 80015e8:	6823      	ldr	r3, [r4, #0]
 80015ea:	625a      	str	r2, [r3, #36]	; 0x24
 80015ec:	2301      	movs	r3, #1
 80015ee:	7763      	strb	r3, [r4, #29]
 80015f0:	2300      	movs	r3, #0
 80015f2:	7723      	strb	r3, [r4, #28]
 80015f4:	e7c6      	b.n	8001584 <HAL_RTC_SetTime+0x78>
 80015f6:	46c0      	nop			; (mov r8, r8)
 80015f8:	007f7f7f 	.word	0x007f7f7f
 80015fc:	fffbffff 	.word	0xfffbffff

08001600 <HAL_RTC_SetDate>:
 8001600:	2302      	movs	r3, #2
 8001602:	b5f7      	push	{r0, r1, r2, r4, r5, r6, r7, lr}
 8001604:	000d      	movs	r5, r1
 8001606:	7f01      	ldrb	r1, [r0, #28]
 8001608:	0004      	movs	r4, r0
 800160a:	001e      	movs	r6, r3
 800160c:	2901      	cmp	r1, #1
 800160e:	d031      	beq.n	8001674 <HAL_RTC_SetDate+0x74>
 8001610:	2101      	movs	r1, #1
 8001612:	7743      	strb	r3, [r0, #29]
 8001614:	7701      	strb	r1, [r0, #28]
 8001616:	782e      	ldrb	r6, [r5, #0]
 8001618:	78e8      	ldrb	r0, [r5, #3]
 800161a:	786b      	ldrb	r3, [r5, #1]
 800161c:	78af      	ldrb	r7, [r5, #2]
 800161e:	0376      	lsls	r6, r6, #13
 8001620:	2a00      	cmp	r2, #0
 8001622:	d147      	bne.n	80016b4 <HAL_RTC_SetDate+0xb4>
 8001624:	3210      	adds	r2, #16
 8001626:	4213      	tst	r3, r2
 8001628:	d002      	beq.n	8001630 <HAL_RTC_SetDate+0x30>
 800162a:	4393      	bics	r3, r2
 800162c:	330a      	adds	r3, #10
 800162e:	706b      	strb	r3, [r5, #1]
 8001630:	f7ff ff60 	bl	80014f4 <RTC_ByteToBcd2>
 8001634:	9001      	str	r0, [sp, #4]
 8001636:	7868      	ldrb	r0, [r5, #1]
 8001638:	f7ff ff5c 	bl	80014f4 <RTC_ByteToBcd2>
 800163c:	0005      	movs	r5, r0
 800163e:	0038      	movs	r0, r7
 8001640:	f7ff ff58 	bl	80014f4 <RTC_ByteToBcd2>
 8001644:	9b01      	ldr	r3, [sp, #4]
 8001646:	4306      	orrs	r6, r0
 8001648:	041f      	lsls	r7, r3, #16
 800164a:	4337      	orrs	r7, r6
 800164c:	022d      	lsls	r5, r5, #8
 800164e:	432f      	orrs	r7, r5
 8001650:	22ca      	movs	r2, #202	; 0xca
 8001652:	6823      	ldr	r3, [r4, #0]
 8001654:	0020      	movs	r0, r4
 8001656:	625a      	str	r2, [r3, #36]	; 0x24
 8001658:	3a77      	subs	r2, #119	; 0x77
 800165a:	625a      	str	r2, [r3, #36]	; 0x24
 800165c:	f7ff feda 	bl	8001414 <RTC_EnterInitMode>
 8001660:	6823      	ldr	r3, [r4, #0]
 8001662:	1e06      	subs	r6, r0, #0
 8001664:	d008      	beq.n	8001678 <HAL_RTC_SetDate+0x78>
 8001666:	22ff      	movs	r2, #255	; 0xff
 8001668:	625a      	str	r2, [r3, #36]	; 0x24
 800166a:	2304      	movs	r3, #4
 800166c:	7763      	strb	r3, [r4, #29]
 800166e:	2300      	movs	r3, #0
 8001670:	7723      	strb	r3, [r4, #28]
 8001672:	2601      	movs	r6, #1
 8001674:	0030      	movs	r0, r6
 8001676:	bdfe      	pop	{r1, r2, r3, r4, r5, r6, r7, pc}
 8001678:	2180      	movs	r1, #128	; 0x80
 800167a:	4d11      	ldr	r5, [pc, #68]	; (80016c0 <HAL_RTC_SetDate+0xc0>)
 800167c:	402f      	ands	r7, r5
 800167e:	605f      	str	r7, [r3, #4]
 8001680:	68da      	ldr	r2, [r3, #12]
 8001682:	438a      	bics	r2, r1
 8001684:	60da      	str	r2, [r3, #12]
 8001686:	689b      	ldr	r3, [r3, #8]
 8001688:	069b      	lsls	r3, r3, #26
 800168a:	d40b      	bmi.n	80016a4 <HAL_RTC_SetDate+0xa4>
 800168c:	0020      	movs	r0, r4
 800168e:	f7ff fea7 	bl	80013e0 <HAL_RTC_WaitForSynchro>
 8001692:	2800      	cmp	r0, #0
 8001694:	d006      	beq.n	80016a4 <HAL_RTC_SetDate+0xa4>
 8001696:	22ff      	movs	r2, #255	; 0xff
 8001698:	6823      	ldr	r3, [r4, #0]
 800169a:	625a      	str	r2, [r3, #36]	; 0x24
 800169c:	2304      	movs	r3, #4
 800169e:	7726      	strb	r6, [r4, #28]
 80016a0:	7763      	strb	r3, [r4, #29]
 80016a2:	e7e6      	b.n	8001672 <HAL_RTC_SetDate+0x72>
 80016a4:	22ff      	movs	r2, #255	; 0xff
 80016a6:	6823      	ldr	r3, [r4, #0]
 80016a8:	625a      	str	r2, [r3, #36]	; 0x24
 80016aa:	2301      	movs	r3, #1
 80016ac:	7763      	strb	r3, [r4, #29]
 80016ae:	2300      	movs	r3, #0
 80016b0:	7723      	strb	r3, [r4, #28]
 80016b2:	e7df      	b.n	8001674 <HAL_RTC_SetDate+0x74>
 80016b4:	0400      	lsls	r0, r0, #16
 80016b6:	4306      	orrs	r6, r0
 80016b8:	4337      	orrs	r7, r6
 80016ba:	021b      	lsls	r3, r3, #8
 80016bc:	431f      	orrs	r7, r3
 80016be:	e7c7      	b.n	8001650 <HAL_RTC_SetDate+0x50>
 80016c0:	00ffff3f 	.word	0x00ffff3f

080016c4 <HAL_RTC_SetAlarm_IT>:
 80016c4:	2302      	movs	r3, #2
 80016c6:	b5f0      	push	{r4, r5, r6, r7, lr}
 80016c8:	b085      	sub	sp, #20
 80016ca:	9000      	str	r0, [sp, #0]
 80016cc:	000c      	movs	r4, r1
 80016ce:	7f01      	ldrb	r1, [r0, #28]
 80016d0:	0018      	movs	r0, r3
 80016d2:	2901      	cmp	r1, #1
 80016d4:	d100      	bne.n	80016d8 <HAL_RTC_SetAlarm_IT+0x14>
 80016d6:	e08e      	b.n	80017f6 <HAL_RTC_SetAlarm_IT+0x132>
 80016d8:	2101      	movs	r1, #1
 80016da:	9800      	ldr	r0, [sp, #0]
 80016dc:	7743      	strb	r3, [r0, #29]
 80016de:	7701      	strb	r1, [r0, #28]
 80016e0:	6805      	ldr	r5, [r0, #0]
 80016e2:	2340      	movs	r3, #64	; 0x40
 80016e4:	7820      	ldrb	r0, [r4, #0]
 80016e6:	7866      	ldrb	r6, [r4, #1]
 80016e8:	78a7      	ldrb	r7, [r4, #2]
 80016ea:	2a00      	cmp	r2, #0
 80016ec:	d161      	bne.n	80017b2 <HAL_RTC_SetAlarm_IT+0xee>
 80016ee:	68aa      	ldr	r2, [r5, #8]
 80016f0:	0011      	movs	r1, r2
 80016f2:	4019      	ands	r1, r3
 80016f4:	421a      	tst	r2, r3
 80016f6:	d100      	bne.n	80016fa <HAL_RTC_SetAlarm_IT+0x36>
 80016f8:	70e1      	strb	r1, [r4, #3]
 80016fa:	f7ff fefb 	bl	80014f4 <RTC_ByteToBcd2>
 80016fe:	9001      	str	r0, [sp, #4]
 8001700:	0030      	movs	r0, r6
 8001702:	f7ff fef7 	bl	80014f4 <RTC_ByteToBcd2>
 8001706:	9002      	str	r0, [sp, #8]
 8001708:	0038      	movs	r0, r7
 800170a:	f7ff fef3 	bl	80014f4 <RTC_ByteToBcd2>
 800170e:	0006      	movs	r6, r0
 8001710:	1c63      	adds	r3, r4, #1
 8001712:	7fd8      	ldrb	r0, [r3, #31]
 8001714:	f7ff feee 	bl	80014f4 <RTC_ByteToBcd2>
 8001718:	6962      	ldr	r2, [r4, #20]
 800171a:	69e3      	ldr	r3, [r4, #28]
 800171c:	4313      	orrs	r3, r2
 800171e:	78e2      	ldrb	r2, [r4, #3]
 8001720:	0412      	lsls	r2, r2, #16
 8001722:	4313      	orrs	r3, r2
 8001724:	431e      	orrs	r6, r3
 8001726:	9b01      	ldr	r3, [sp, #4]
 8001728:	041b      	lsls	r3, r3, #16
 800172a:	431e      	orrs	r6, r3
 800172c:	9b02      	ldr	r3, [sp, #8]
 800172e:	021f      	lsls	r7, r3, #8
 8001730:	433e      	orrs	r6, r7
 8001732:	6863      	ldr	r3, [r4, #4]
 8001734:	4a31      	ldr	r2, [pc, #196]	; (80017fc <HAL_RTC_SetAlarm_IT+0x138>)
 8001736:	9301      	str	r3, [sp, #4]
 8001738:	69a3      	ldr	r3, [r4, #24]
 800173a:	0600      	lsls	r0, r0, #24
 800173c:	9302      	str	r3, [sp, #8]
 800173e:	23ca      	movs	r3, #202	; 0xca
 8001740:	626b      	str	r3, [r5, #36]	; 0x24
 8001742:	3b77      	subs	r3, #119	; 0x77
 8001744:	626b      	str	r3, [r5, #36]	; 0x24
 8001746:	68ab      	ldr	r3, [r5, #8]
 8001748:	4306      	orrs	r6, r0
 800174a:	4013      	ands	r3, r2
 800174c:	60ab      	str	r3, [r5, #8]
 800174e:	68ea      	ldr	r2, [r5, #12]
 8001750:	4b2b      	ldr	r3, [pc, #172]	; (8001800 <HAL_RTC_SetAlarm_IT+0x13c>)
 8001752:	b2d2      	uxtb	r2, r2
 8001754:	4313      	orrs	r3, r2
 8001756:	60eb      	str	r3, [r5, #12]
 8001758:	f7ff f8ec 	bl	8000934 <HAL_GetTick>
 800175c:	25fa      	movs	r5, #250	; 0xfa
 800175e:	0007      	movs	r7, r0
 8001760:	2401      	movs	r4, #1
 8001762:	00ad      	lsls	r5, r5, #2
 8001764:	9b00      	ldr	r3, [sp, #0]
 8001766:	681b      	ldr	r3, [r3, #0]
 8001768:	68da      	ldr	r2, [r3, #12]
 800176a:	0011      	movs	r1, r2
 800176c:	4021      	ands	r1, r4
 800176e:	9103      	str	r1, [sp, #12]
 8001770:	4222      	tst	r2, r4
 8001772:	d032      	beq.n	80017da <HAL_RTC_SetAlarm_IT+0x116>
 8001774:	9902      	ldr	r1, [sp, #8]
 8001776:	9a01      	ldr	r2, [sp, #4]
 8001778:	61de      	str	r6, [r3, #28]
 800177a:	430a      	orrs	r2, r1
 800177c:	645a      	str	r2, [r3, #68]	; 0x44
 800177e:	2280      	movs	r2, #128	; 0x80
 8001780:	6899      	ldr	r1, [r3, #8]
 8001782:	0052      	lsls	r2, r2, #1
 8001784:	430a      	orrs	r2, r1
 8001786:	609a      	str	r2, [r3, #8]
 8001788:	2280      	movs	r2, #128	; 0x80
 800178a:	6899      	ldr	r1, [r3, #8]
 800178c:	0152      	lsls	r2, r2, #5
 800178e:	430a      	orrs	r2, r1
 8001790:	2180      	movs	r1, #128	; 0x80
 8001792:	609a      	str	r2, [r3, #8]
 8001794:	4a1b      	ldr	r2, [pc, #108]	; (8001804 <HAL_RTC_SetAlarm_IT+0x140>)
 8001796:	0289      	lsls	r1, r1, #10
 8001798:	6810      	ldr	r0, [r2, #0]
 800179a:	4308      	orrs	r0, r1
 800179c:	6010      	str	r0, [r2, #0]
 800179e:	6890      	ldr	r0, [r2, #8]
 80017a0:	4301      	orrs	r1, r0
 80017a2:	6091      	str	r1, [r2, #8]
 80017a4:	22ff      	movs	r2, #255	; 0xff
 80017a6:	2000      	movs	r0, #0
 80017a8:	625a      	str	r2, [r3, #36]	; 0x24
 80017aa:	9b00      	ldr	r3, [sp, #0]
 80017ac:	775c      	strb	r4, [r3, #29]
 80017ae:	7718      	strb	r0, [r3, #28]
 80017b0:	e021      	b.n	80017f6 <HAL_RTC_SetAlarm_IT+0x132>
 80017b2:	68aa      	ldr	r2, [r5, #8]
 80017b4:	0011      	movs	r1, r2
 80017b6:	4019      	ands	r1, r3
 80017b8:	421a      	tst	r2, r3
 80017ba:	d100      	bne.n	80017be <HAL_RTC_SetAlarm_IT+0xfa>
 80017bc:	70e1      	strb	r1, [r4, #3]
 80017be:	69e3      	ldr	r3, [r4, #28]
 80017c0:	6962      	ldr	r2, [r4, #20]
 80017c2:	0400      	lsls	r0, r0, #16
 80017c4:	4313      	orrs	r3, r2
 80017c6:	431f      	orrs	r7, r3
 80017c8:	4307      	orrs	r7, r0
 80017ca:	0236      	lsls	r6, r6, #8
 80017cc:	433e      	orrs	r6, r7
 80017ce:	78e7      	ldrb	r7, [r4, #3]
 80017d0:	1c63      	adds	r3, r4, #1
 80017d2:	043f      	lsls	r7, r7, #16
 80017d4:	7fd8      	ldrb	r0, [r3, #31]
 80017d6:	433e      	orrs	r6, r7
 80017d8:	e7ab      	b.n	8001732 <HAL_RTC_SetAlarm_IT+0x6e>
 80017da:	f7ff f8ab 	bl	8000934 <HAL_GetTick>
 80017de:	1bc0      	subs	r0, r0, r7
 80017e0:	42a8      	cmp	r0, r5
 80017e2:	d9bf      	bls.n	8001764 <HAL_RTC_SetAlarm_IT+0xa0>
 80017e4:	22ff      	movs	r2, #255	; 0xff
 80017e6:	2003      	movs	r0, #3
 80017e8:	9b00      	ldr	r3, [sp, #0]
 80017ea:	681b      	ldr	r3, [r3, #0]
 80017ec:	625a      	str	r2, [r3, #36]	; 0x24
 80017ee:	9b00      	ldr	r3, [sp, #0]
 80017f0:	9a03      	ldr	r2, [sp, #12]
 80017f2:	7758      	strb	r0, [r3, #29]
 80017f4:	771a      	strb	r2, [r3, #28]
 80017f6:	b005      	add	sp, #20
 80017f8:	bdf0      	pop	{r4, r5, r6, r7, pc}
 80017fa:	46c0      	nop			; (mov r8, r8)
 80017fc:	fffffeff 	.word	0xfffffeff
 8001800:	fffffe7f 	.word	0xfffffe7f
 8001804:	40010400 	.word	0x40010400

08001808 <SPI_WaitFifoStateUntilTimeout.constprop.0>:
 8001808:	b5f0      	push	{r4, r5, r6, r7, lr}
 800180a:	0017      	movs	r7, r2
 800180c:	2200      	movs	r2, #0
 800180e:	b085      	sub	sp, #20
 8001810:	001d      	movs	r5, r3
 8001812:	ab02      	add	r3, sp, #8
 8001814:	70da      	strb	r2, [r3, #3]
 8001816:	0004      	movs	r4, r0
 8001818:	000e      	movs	r6, r1
 800181a:	f7ff f88b 	bl	8000934 <HAL_GetTick>
 800181e:	19ed      	adds	r5, r5, r7
 8001820:	1a2d      	subs	r5, r5, r0
 8001822:	f7ff f887 	bl	8000934 <HAL_GetTick>
 8001826:	2223      	movs	r2, #35	; 0x23
 8001828:	6823      	ldr	r3, [r4, #0]
 800182a:	9000      	str	r0, [sp, #0]
 800182c:	9301      	str	r3, [sp, #4]
 800182e:	4b2a      	ldr	r3, [pc, #168]	; (80018d8 <SPI_WaitFifoStateUntilTimeout.constprop.0+0xd0>)
 8001830:	681b      	ldr	r3, [r3, #0]
 8001832:	4353      	muls	r3, r2
 8001834:	0d1b      	lsrs	r3, r3, #20
 8001836:	436b      	muls	r3, r5
 8001838:	9303      	str	r3, [sp, #12]
 800183a:	6821      	ldr	r1, [r4, #0]
 800183c:	ab02      	add	r3, sp, #8
 800183e:	1cda      	adds	r2, r3, #3
 8001840:	688b      	ldr	r3, [r1, #8]
 8001842:	0018      	movs	r0, r3
 8001844:	4030      	ands	r0, r6
 8001846:	4233      	tst	r3, r6
 8001848:	d03b      	beq.n	80018c2 <SPI_WaitFifoStateUntilTimeout.constprop.0+0xba>
 800184a:	23c0      	movs	r3, #192	; 0xc0
 800184c:	00db      	lsls	r3, r3, #3
 800184e:	429e      	cmp	r6, r3
 8001850:	d104      	bne.n	800185c <SPI_WaitFifoStateUntilTimeout.constprop.0+0x54>
 8001852:	9b01      	ldr	r3, [sp, #4]
 8001854:	7b1b      	ldrb	r3, [r3, #12]
 8001856:	b2db      	uxtb	r3, r3
 8001858:	7013      	strb	r3, [r2, #0]
 800185a:	7813      	ldrb	r3, [r2, #0]
 800185c:	1c7b      	adds	r3, r7, #1
 800185e:	d0ef      	beq.n	8001840 <SPI_WaitFifoStateUntilTimeout.constprop.0+0x38>
 8001860:	f7ff f868 	bl	8000934 <HAL_GetTick>
 8001864:	9b00      	ldr	r3, [sp, #0]
 8001866:	1ac0      	subs	r0, r0, r3
 8001868:	42a8      	cmp	r0, r5
 800186a:	d32c      	bcc.n	80018c6 <SPI_WaitFifoStateUntilTimeout.constprop.0+0xbe>
 800186c:	21e0      	movs	r1, #224	; 0xe0
 800186e:	6823      	ldr	r3, [r4, #0]
 8001870:	685a      	ldr	r2, [r3, #4]
 8001872:	438a      	bics	r2, r1
 8001874:	605a      	str	r2, [r3, #4]
 8001876:	2282      	movs	r2, #130	; 0x82
 8001878:	6861      	ldr	r1, [r4, #4]
 800187a:	0052      	lsls	r2, r2, #1
 800187c:	4291      	cmp	r1, r2
 800187e:	d10c      	bne.n	800189a <SPI_WaitFifoStateUntilTimeout.constprop.0+0x92>
 8001880:	2180      	movs	r1, #128	; 0x80
 8001882:	68a2      	ldr	r2, [r4, #8]
 8001884:	0209      	lsls	r1, r1, #8
 8001886:	428a      	cmp	r2, r1
 8001888:	d003      	beq.n	8001892 <SPI_WaitFifoStateUntilTimeout.constprop.0+0x8a>
 800188a:	2180      	movs	r1, #128	; 0x80
 800188c:	00c9      	lsls	r1, r1, #3
 800188e:	428a      	cmp	r2, r1
 8001890:	d103      	bne.n	800189a <SPI_WaitFifoStateUntilTimeout.constprop.0+0x92>
 8001892:	2140      	movs	r1, #64	; 0x40
 8001894:	681a      	ldr	r2, [r3, #0]
 8001896:	438a      	bics	r2, r1
 8001898:	601a      	str	r2, [r3, #0]
 800189a:	2180      	movs	r1, #128	; 0x80
 800189c:	6aa2      	ldr	r2, [r4, #40]	; 0x28
 800189e:	0189      	lsls	r1, r1, #6
 80018a0:	428a      	cmp	r2, r1
 80018a2:	d106      	bne.n	80018b2 <SPI_WaitFifoStateUntilTimeout.constprop.0+0xaa>
 80018a4:	6819      	ldr	r1, [r3, #0]
 80018a6:	480d      	ldr	r0, [pc, #52]	; (80018dc <SPI_WaitFifoStateUntilTimeout.constprop.0+0xd4>)
 80018a8:	4001      	ands	r1, r0
 80018aa:	6019      	str	r1, [r3, #0]
 80018ac:	6819      	ldr	r1, [r3, #0]
 80018ae:	430a      	orrs	r2, r1
 80018b0:	601a      	str	r2, [r3, #0]
 80018b2:	0023      	movs	r3, r4
 80018b4:	2201      	movs	r2, #1
 80018b6:	335d      	adds	r3, #93	; 0x5d
 80018b8:	701a      	strb	r2, [r3, #0]
 80018ba:	2300      	movs	r3, #0
 80018bc:	2003      	movs	r0, #3
 80018be:	345c      	adds	r4, #92	; 0x5c
 80018c0:	7023      	strb	r3, [r4, #0]
 80018c2:	b005      	add	sp, #20
 80018c4:	bdf0      	pop	{r4, r5, r6, r7, pc}
 80018c6:	9b03      	ldr	r3, [sp, #12]
 80018c8:	1e5a      	subs	r2, r3, #1
 80018ca:	4193      	sbcs	r3, r2
 80018cc:	425b      	negs	r3, r3
 80018ce:	401d      	ands	r5, r3
 80018d0:	9b03      	ldr	r3, [sp, #12]
 80018d2:	3b01      	subs	r3, #1
 80018d4:	e7b0      	b.n	8001838 <SPI_WaitFifoStateUntilTimeout.constprop.0+0x30>
 80018d6:	46c0      	nop			; (mov r8, r8)
 80018d8:	20000004 	.word	0x20000004
 80018dc:	ffffdfff 	.word	0xffffdfff

080018e0 <SPI_WaitFlagStateUntilTimeout.constprop.0>:
 80018e0:	b5f0      	push	{r4, r5, r6, r7, lr}
 80018e2:	000e      	movs	r6, r1
 80018e4:	b085      	sub	sp, #20
 80018e6:	0015      	movs	r5, r2
 80018e8:	0004      	movs	r4, r0
 80018ea:	f7ff f823 	bl	8000934 <HAL_GetTick>
 80018ee:	19ad      	adds	r5, r5, r6
 80018f0:	1a2d      	subs	r5, r5, r0
 80018f2:	f7ff f81f 	bl	8000934 <HAL_GetTick>
 80018f6:	2780      	movs	r7, #128	; 0x80
 80018f8:	4b25      	ldr	r3, [pc, #148]	; (8001990 <SPI_WaitFlagStateUntilTimeout.constprop.0+0xb0>)
 80018fa:	9001      	str	r0, [sp, #4]
 80018fc:	681b      	ldr	r3, [r3, #0]
 80018fe:	015b      	lsls	r3, r3, #5
 8001900:	0d1b      	lsrs	r3, r3, #20
 8001902:	436b      	muls	r3, r5
 8001904:	9303      	str	r3, [sp, #12]
 8001906:	6822      	ldr	r2, [r4, #0]
 8001908:	6893      	ldr	r3, [r2, #8]
 800190a:	0018      	movs	r0, r3
 800190c:	4038      	ands	r0, r7
 800190e:	423b      	tst	r3, r7
 8001910:	d032      	beq.n	8001978 <SPI_WaitFlagStateUntilTimeout.constprop.0+0x98>
 8001912:	1c73      	adds	r3, r6, #1
 8001914:	d0f8      	beq.n	8001908 <SPI_WaitFlagStateUntilTimeout.constprop.0+0x28>
 8001916:	f7ff f80d 	bl	8000934 <HAL_GetTick>
 800191a:	9b01      	ldr	r3, [sp, #4]
 800191c:	1ac0      	subs	r0, r0, r3
 800191e:	42a8      	cmp	r0, r5
 8001920:	d32c      	bcc.n	800197c <SPI_WaitFlagStateUntilTimeout.constprop.0+0x9c>
 8001922:	21e0      	movs	r1, #224	; 0xe0
 8001924:	6823      	ldr	r3, [r4, #0]
 8001926:	685a      	ldr	r2, [r3, #4]
 8001928:	438a      	bics	r2, r1
 800192a:	605a      	str	r2, [r3, #4]
 800192c:	2282      	movs	r2, #130	; 0x82
 800192e:	6861      	ldr	r1, [r4, #4]
 8001930:	0052      	lsls	r2, r2, #1
 8001932:	4291      	cmp	r1, r2
 8001934:	d10c      	bne.n	8001950 <SPI_WaitFlagStateUntilTimeout.constprop.0+0x70>
 8001936:	2180      	movs	r1, #128	; 0x80
 8001938:	68a2      	ldr	r2, [r4, #8]
 800193a:	0209      	lsls	r1, r1, #8
 800193c:	428a      	cmp	r2, r1
 800193e:	d003      	beq.n	8001948 <SPI_WaitFlagStateUntilTimeout.constprop.0+0x68>
 8001940:	2180      	movs	r1, #128	; 0x80
 8001942:	00c9      	lsls	r1, r1, #3
 8001944:	428a      	cmp	r2, r1
 8001946:	d103      	bne.n	8001950 <SPI_WaitFlagStateUntilTimeout.constprop.0+0x70>
 8001948:	2140      	movs	r1, #64	; 0x40
 800194a:	681a      	ldr	r2, [r3, #0]
 800194c:	438a      	bics	r2, r1
 800194e:	601a      	str	r2, [r3, #0]
 8001950:	2180      	movs	r1, #128	; 0x80
 8001952:	6aa2      	ldr	r2, [r4, #40]	; 0x28
 8001954:	0189      	lsls	r1, r1, #6
 8001956:	428a      	cmp	r2, r1
 8001958:	d106      	bne.n	8001968 <SPI_WaitFlagStateUntilTimeout.constprop.0+0x88>
 800195a:	6819      	ldr	r1, [r3, #0]
 800195c:	480d      	ldr	r0, [pc, #52]	; (8001994 <SPI_WaitFlagStateUntilTimeout.constprop.0+0xb4>)
 800195e:	4001      	ands	r1, r0
 8001960:	6019      	str	r1, [r3, #0]
 8001962:	6819      	ldr	r1, [r3, #0]
 8001964:	430a      	orrs	r2, r1
 8001966:	601a      	str	r2, [r3, #0]
 8001968:	0023      	movs	r3, r4
 800196a:	2201      	movs	r2, #1
 800196c:	335d      	adds	r3, #93	; 0x5d
 800196e:	701a      	strb	r2, [r3, #0]
 8001970:	2300      	movs	r3, #0
 8001972:	2003      	movs	r0, #3
 8001974:	345c      	adds	r4, #92	; 0x5c
 8001976:	7023      	strb	r3, [r4, #0]
 8001978:	b005      	add	sp, #20
 800197a:	bdf0      	pop	{r4, r5, r6, r7, pc}
 800197c:	9b03      	ldr	r3, [sp, #12]
 800197e:	1e5a      	subs	r2, r3, #1
 8001980:	4193      	sbcs	r3, r2
 8001982:	425b      	negs	r3, r3
 8001984:	401d      	ands	r5, r3
 8001986:	9b03      	ldr	r3, [sp, #12]
 8001988:	3b01      	subs	r3, #1
 800198a:	9303      	str	r3, [sp, #12]
 800198c:	e7bb      	b.n	8001906 <SPI_WaitFlagStateUntilTimeout.constprop.0+0x26>
 800198e:	46c0      	nop			; (mov r8, r8)
 8001990:	20000004 	.word	0x20000004
 8001994:	ffffdfff 	.word	0xffffdfff

08001998 <SPI_EndRxTxTransaction>:
 8001998:	b570      	push	{r4, r5, r6, lr}
 800199a:	0013      	movs	r3, r2
 800199c:	000d      	movs	r5, r1
 800199e:	0016      	movs	r6, r2
 80019a0:	000a      	movs	r2, r1
 80019a2:	21c0      	movs	r1, #192	; 0xc0
 80019a4:	0149      	lsls	r1, r1, #5
 80019a6:	0004      	movs	r4, r0
 80019a8:	f7ff ff2e 	bl	8001808 <SPI_WaitFifoStateUntilTimeout.constprop.0>
 80019ac:	2800      	cmp	r0, #0
 80019ae:	d005      	beq.n	80019bc <SPI_EndRxTxTransaction+0x24>
 80019b0:	2320      	movs	r3, #32
 80019b2:	6e22      	ldr	r2, [r4, #96]	; 0x60
 80019b4:	2003      	movs	r0, #3
 80019b6:	4313      	orrs	r3, r2
 80019b8:	6623      	str	r3, [r4, #96]	; 0x60
 80019ba:	e00f      	b.n	80019dc <SPI_EndRxTxTransaction+0x44>
 80019bc:	0032      	movs	r2, r6
 80019be:	0029      	movs	r1, r5
 80019c0:	0020      	movs	r0, r4
 80019c2:	f7ff ff8d 	bl	80018e0 <SPI_WaitFlagStateUntilTimeout.constprop.0>
 80019c6:	2800      	cmp	r0, #0
 80019c8:	d1f2      	bne.n	80019b0 <SPI_EndRxTxTransaction+0x18>
 80019ca:	21c0      	movs	r1, #192	; 0xc0
 80019cc:	0033      	movs	r3, r6
 80019ce:	002a      	movs	r2, r5
 80019d0:	0020      	movs	r0, r4
 80019d2:	00c9      	lsls	r1, r1, #3
 80019d4:	f7ff ff18 	bl	8001808 <SPI_WaitFifoStateUntilTimeout.constprop.0>
 80019d8:	2800      	cmp	r0, #0
 80019da:	d1e9      	bne.n	80019b0 <SPI_EndRxTxTransaction+0x18>
 80019dc:	bd70      	pop	{r4, r5, r6, pc}
	...

080019e0 <HAL_SPI_Init>:
 80019e0:	b5f8      	push	{r3, r4, r5, r6, r7, lr}
 80019e2:	0004      	movs	r4, r0
 80019e4:	2001      	movs	r0, #1
 80019e6:	2c00      	cmp	r4, #0
 80019e8:	d067      	beq.n	8001aba <HAL_SPI_Init+0xda>
 80019ea:	6a63      	ldr	r3, [r4, #36]	; 0x24
 80019ec:	2b00      	cmp	r3, #0
 80019ee:	d165      	bne.n	8001abc <HAL_SPI_Init+0xdc>
 80019f0:	2282      	movs	r2, #130	; 0x82
 80019f2:	6861      	ldr	r1, [r4, #4]
 80019f4:	0052      	lsls	r2, r2, #1
 80019f6:	4291      	cmp	r1, r2
 80019f8:	d000      	beq.n	80019fc <HAL_SPI_Init+0x1c>
 80019fa:	61e3      	str	r3, [r4, #28]
 80019fc:	2300      	movs	r3, #0
 80019fe:	0025      	movs	r5, r4
 8001a00:	62a3      	str	r3, [r4, #40]	; 0x28
 8001a02:	355d      	adds	r5, #93	; 0x5d
 8001a04:	782b      	ldrb	r3, [r5, #0]
 8001a06:	b2da      	uxtb	r2, r3
 8001a08:	2b00      	cmp	r3, #0
 8001a0a:	d105      	bne.n	8001a18 <HAL_SPI_Init+0x38>
 8001a0c:	0023      	movs	r3, r4
 8001a0e:	335c      	adds	r3, #92	; 0x5c
 8001a10:	0020      	movs	r0, r4
 8001a12:	701a      	strb	r2, [r3, #0]
 8001a14:	f7fe fe7c 	bl	8000710 <HAL_SPI_MspInit>
 8001a18:	2302      	movs	r3, #2
 8001a1a:	2140      	movs	r1, #64	; 0x40
 8001a1c:	702b      	strb	r3, [r5, #0]
 8001a1e:	6822      	ldr	r2, [r4, #0]
 8001a20:	68e5      	ldr	r5, [r4, #12]
 8001a22:	6813      	ldr	r3, [r2, #0]
 8001a24:	438b      	bics	r3, r1
 8001a26:	21e0      	movs	r1, #224	; 0xe0
 8001a28:	6013      	str	r3, [r2, #0]
 8001a2a:	00c9      	lsls	r1, r1, #3
 8001a2c:	2300      	movs	r3, #0
 8001a2e:	428d      	cmp	r5, r1
 8001a30:	d848      	bhi.n	8001ac4 <HAL_SPI_Init+0xe4>
 8001a32:	2080      	movs	r0, #128	; 0x80
 8001a34:	0140      	lsls	r0, r0, #5
 8001a36:	428d      	cmp	r5, r1
 8001a38:	d000      	beq.n	8001a3c <HAL_SPI_Init+0x5c>
 8001a3a:	62a3      	str	r3, [r4, #40]	; 0x28
 8001a3c:	2382      	movs	r3, #130	; 0x82
 8001a3e:	6866      	ldr	r6, [r4, #4]
 8001a40:	005b      	lsls	r3, r3, #1
 8001a42:	4033      	ands	r3, r6
 8001a44:	2684      	movs	r6, #132	; 0x84
 8001a46:	68a7      	ldr	r7, [r4, #8]
 8001a48:	0236      	lsls	r6, r6, #8
 8001a4a:	403e      	ands	r6, r7
 8001a4c:	4333      	orrs	r3, r6
 8001a4e:	2602      	movs	r6, #2
 8001a50:	6927      	ldr	r7, [r4, #16]
 8001a52:	69a1      	ldr	r1, [r4, #24]
 8001a54:	403e      	ands	r6, r7
 8001a56:	4333      	orrs	r3, r6
 8001a58:	2601      	movs	r6, #1
 8001a5a:	6967      	ldr	r7, [r4, #20]
 8001a5c:	46b4      	mov	ip, r6
 8001a5e:	4037      	ands	r7, r6
 8001a60:	433b      	orrs	r3, r7
 8001a62:	2780      	movs	r7, #128	; 0x80
 8001a64:	00bf      	lsls	r7, r7, #2
 8001a66:	400f      	ands	r7, r1
 8001a68:	433b      	orrs	r3, r7
 8001a6a:	2738      	movs	r7, #56	; 0x38
 8001a6c:	69e6      	ldr	r6, [r4, #28]
 8001a6e:	0c09      	lsrs	r1, r1, #16
 8001a70:	4037      	ands	r7, r6
 8001a72:	433b      	orrs	r3, r7
 8001a74:	2780      	movs	r7, #128	; 0x80
 8001a76:	6a26      	ldr	r6, [r4, #32]
 8001a78:	4037      	ands	r7, r6
 8001a7a:	433b      	orrs	r3, r7
 8001a7c:	2780      	movs	r7, #128	; 0x80
 8001a7e:	6aa6      	ldr	r6, [r4, #40]	; 0x28
 8001a80:	01bf      	lsls	r7, r7, #6
 8001a82:	4037      	ands	r7, r6
 8001a84:	433b      	orrs	r3, r7
 8001a86:	6013      	str	r3, [r2, #0]
 8001a88:	2310      	movs	r3, #16
 8001a8a:	2708      	movs	r7, #8
 8001a8c:	6a66      	ldr	r6, [r4, #36]	; 0x24
 8001a8e:	4033      	ands	r3, r6
 8001a90:	6b66      	ldr	r6, [r4, #52]	; 0x34
 8001a92:	4037      	ands	r7, r6
 8001a94:	433b      	orrs	r3, r7
 8001a96:	27f0      	movs	r7, #240	; 0xf0
 8001a98:	013f      	lsls	r7, r7, #4
 8001a9a:	403d      	ands	r5, r7
 8001a9c:	431d      	orrs	r5, r3
 8001a9e:	2304      	movs	r3, #4
 8001aa0:	4019      	ands	r1, r3
 8001aa2:	4329      	orrs	r1, r5
 8001aa4:	4308      	orrs	r0, r1
 8001aa6:	6050      	str	r0, [r2, #4]
 8001aa8:	69d3      	ldr	r3, [r2, #28]
 8001aaa:	4908      	ldr	r1, [pc, #32]	; (8001acc <HAL_SPI_Init+0xec>)
 8001aac:	2000      	movs	r0, #0
 8001aae:	400b      	ands	r3, r1
 8001ab0:	61d3      	str	r3, [r2, #28]
 8001ab2:	4663      	mov	r3, ip
 8001ab4:	6620      	str	r0, [r4, #96]	; 0x60
 8001ab6:	345d      	adds	r4, #93	; 0x5d
 8001ab8:	7023      	strb	r3, [r4, #0]
 8001aba:	bdf8      	pop	{r3, r4, r5, r6, r7, pc}
 8001abc:	2300      	movs	r3, #0
 8001abe:	6123      	str	r3, [r4, #16]
 8001ac0:	6163      	str	r3, [r4, #20]
 8001ac2:	e79b      	b.n	80019fc <HAL_SPI_Init+0x1c>
 8001ac4:	21f0      	movs	r1, #240	; 0xf0
 8001ac6:	0018      	movs	r0, r3
 8001ac8:	0109      	lsls	r1, r1, #4
 8001aca:	e7b4      	b.n	8001a36 <HAL_SPI_Init+0x56>
 8001acc:	fffff7ff 	.word	0xfffff7ff

08001ad0 <HAL_SPI_Transmit_DMA>:
 8001ad0:	b5f8      	push	{r3, r4, r5, r6, r7, lr}
 8001ad2:	0006      	movs	r6, r0
 8001ad4:	365c      	adds	r6, #92	; 0x5c
 8001ad6:	7833      	ldrb	r3, [r6, #0]
 8001ad8:	0004      	movs	r4, r0
 8001ada:	2502      	movs	r5, #2
 8001adc:	2b01      	cmp	r3, #1
 8001ade:	d05b      	beq.n	8001b98 <HAL_SPI_Transmit_DMA+0xc8>
 8001ae0:	2301      	movs	r3, #1
 8001ae2:	7033      	strb	r3, [r6, #0]
 8001ae4:	0003      	movs	r3, r0
 8001ae6:	335d      	adds	r3, #93	; 0x5d
 8001ae8:	7818      	ldrb	r0, [r3, #0]
 8001aea:	b2c5      	uxtb	r5, r0
 8001aec:	2801      	cmp	r0, #1
 8001aee:	d000      	beq.n	8001af2 <HAL_SPI_Transmit_DMA+0x22>
 8001af0:	e06f      	b.n	8001bd2 <HAL_SPI_Transmit_DMA+0x102>
 8001af2:	2900      	cmp	r1, #0
 8001af4:	d04e      	beq.n	8001b94 <HAL_SPI_Transmit_DMA+0xc4>
 8001af6:	2a00      	cmp	r2, #0
 8001af8:	d04c      	beq.n	8001b94 <HAL_SPI_Transmit_DMA+0xc4>
 8001afa:	3002      	adds	r0, #2
 8001afc:	7018      	strb	r0, [r3, #0]
 8001afe:	2300      	movs	r3, #0
 8001b00:	87a2      	strh	r2, [r4, #60]	; 0x3c
 8001b02:	6623      	str	r3, [r4, #96]	; 0x60
 8001b04:	87e2      	strh	r2, [r4, #62]	; 0x3e
 8001b06:	1da2      	adds	r2, r4, #6
 8001b08:	6423      	str	r3, [r4, #64]	; 0x40
 8001b0a:	6523      	str	r3, [r4, #80]	; 0x50
 8001b0c:	64e3      	str	r3, [r4, #76]	; 0x4c
 8001b0e:	63a1      	str	r1, [r4, #56]	; 0x38
 8001b10:	3202      	adds	r2, #2
 8001b12:	8793      	strh	r3, [r2, #60]	; 0x3c
 8001b14:	87d3      	strh	r3, [r2, #62]	; 0x3e
 8001b16:	2380      	movs	r3, #128	; 0x80
 8001b18:	68a0      	ldr	r0, [r4, #8]
 8001b1a:	6822      	ldr	r2, [r4, #0]
 8001b1c:	021b      	lsls	r3, r3, #8
 8001b1e:	4298      	cmp	r0, r3
 8001b20:	d108      	bne.n	8001b34 <HAL_SPI_Transmit_DMA+0x64>
 8001b22:	2040      	movs	r0, #64	; 0x40
 8001b24:	6813      	ldr	r3, [r2, #0]
 8001b26:	4383      	bics	r3, r0
 8001b28:	6013      	str	r3, [r2, #0]
 8001b2a:	2380      	movs	r3, #128	; 0x80
 8001b2c:	6810      	ldr	r0, [r2, #0]
 8001b2e:	01db      	lsls	r3, r3, #7
 8001b30:	4303      	orrs	r3, r0
 8001b32:	6013      	str	r3, [r2, #0]
 8001b34:	6d60      	ldr	r0, [r4, #84]	; 0x54
 8001b36:	4b28      	ldr	r3, [pc, #160]	; (8001bd8 <HAL_SPI_Transmit_DMA+0x108>)
 8001b38:	6857      	ldr	r7, [r2, #4]
 8001b3a:	62c3      	str	r3, [r0, #44]	; 0x2c
 8001b3c:	4b27      	ldr	r3, [pc, #156]	; (8001bdc <HAL_SPI_Transmit_DMA+0x10c>)
 8001b3e:	6283      	str	r3, [r0, #40]	; 0x28
 8001b40:	4b27      	ldr	r3, [pc, #156]	; (8001be0 <HAL_SPI_Transmit_DMA+0x110>)
 8001b42:	6303      	str	r3, [r0, #48]	; 0x30
 8001b44:	2300      	movs	r3, #0
 8001b46:	6343      	str	r3, [r0, #52]	; 0x34
 8001b48:	4b26      	ldr	r3, [pc, #152]	; (8001be4 <HAL_SPI_Transmit_DMA+0x114>)
 8001b4a:	401f      	ands	r7, r3
 8001b4c:	469c      	mov	ip, r3
 8001b4e:	23e0      	movs	r3, #224	; 0xe0
 8001b50:	6057      	str	r7, [r2, #4]
 8001b52:	68e7      	ldr	r7, [r4, #12]
 8001b54:	00db      	lsls	r3, r3, #3
 8001b56:	429f      	cmp	r7, r3
 8001b58:	d80e      	bhi.n	8001b78 <HAL_SPI_Transmit_DMA+0xa8>
 8001b5a:	2380      	movs	r3, #128	; 0x80
 8001b5c:	6947      	ldr	r7, [r0, #20]
 8001b5e:	00db      	lsls	r3, r3, #3
 8001b60:	429f      	cmp	r7, r3
 8001b62:	d109      	bne.n	8001b78 <HAL_SPI_Transmit_DMA+0xa8>
 8001b64:	8fe3      	ldrh	r3, [r4, #62]	; 0x3e
 8001b66:	07db      	lsls	r3, r3, #31
 8001b68:	d418      	bmi.n	8001b9c <HAL_SPI_Transmit_DMA+0xcc>
 8001b6a:	4667      	mov	r7, ip
 8001b6c:	6853      	ldr	r3, [r2, #4]
 8001b6e:	403b      	ands	r3, r7
 8001b70:	6053      	str	r3, [r2, #4]
 8001b72:	8fe3      	ldrh	r3, [r4, #62]	; 0x3e
 8001b74:	085b      	lsrs	r3, r3, #1
 8001b76:	87e3      	strh	r3, [r4, #62]	; 0x3e
 8001b78:	8fe3      	ldrh	r3, [r4, #62]	; 0x3e
 8001b7a:	320c      	adds	r2, #12
 8001b7c:	b29b      	uxth	r3, r3
 8001b7e:	f7fe ff61 	bl	8000a44 <HAL_DMA_Start_IT>
 8001b82:	2800      	cmp	r0, #0
 8001b84:	d013      	beq.n	8001bae <HAL_SPI_Transmit_DMA+0xde>
 8001b86:	2310      	movs	r3, #16
 8001b88:	6e22      	ldr	r2, [r4, #96]	; 0x60
 8001b8a:	4313      	orrs	r3, r2
 8001b8c:	6623      	str	r3, [r4, #96]	; 0x60
 8001b8e:	2301      	movs	r3, #1
 8001b90:	345d      	adds	r4, #93	; 0x5d
 8001b92:	7023      	strb	r3, [r4, #0]
 8001b94:	2300      	movs	r3, #0
 8001b96:	7033      	strb	r3, [r6, #0]
 8001b98:	0028      	movs	r0, r5
 8001b9a:	bdf8      	pop	{r3, r4, r5, r6, r7, pc}
 8001b9c:	2380      	movs	r3, #128	; 0x80
 8001b9e:	6857      	ldr	r7, [r2, #4]
 8001ba0:	01db      	lsls	r3, r3, #7
 8001ba2:	433b      	orrs	r3, r7
 8001ba4:	6053      	str	r3, [r2, #4]
 8001ba6:	8fe3      	ldrh	r3, [r4, #62]	; 0x3e
 8001ba8:	085b      	lsrs	r3, r3, #1
 8001baa:	3301      	adds	r3, #1
 8001bac:	e7e3      	b.n	8001b76 <HAL_SPI_Transmit_DMA+0xa6>
 8001bae:	2240      	movs	r2, #64	; 0x40
 8001bb0:	6823      	ldr	r3, [r4, #0]
 8001bb2:	6819      	ldr	r1, [r3, #0]
 8001bb4:	4211      	tst	r1, r2
 8001bb6:	d102      	bne.n	8001bbe <HAL_SPI_Transmit_DMA+0xee>
 8001bb8:	6819      	ldr	r1, [r3, #0]
 8001bba:	430a      	orrs	r2, r1
 8001bbc:	601a      	str	r2, [r3, #0]
 8001bbe:	2220      	movs	r2, #32
 8001bc0:	6859      	ldr	r1, [r3, #4]
 8001bc2:	2500      	movs	r5, #0
 8001bc4:	430a      	orrs	r2, r1
 8001bc6:	605a      	str	r2, [r3, #4]
 8001bc8:	2202      	movs	r2, #2
 8001bca:	6859      	ldr	r1, [r3, #4]
 8001bcc:	430a      	orrs	r2, r1
 8001bce:	605a      	str	r2, [r3, #4]
 8001bd0:	e7e0      	b.n	8001b94 <HAL_SPI_Transmit_DMA+0xc4>
 8001bd2:	2502      	movs	r5, #2
 8001bd4:	e7de      	b.n	8001b94 <HAL_SPI_Transmit_DMA+0xc4>
 8001bd6:	46c0      	nop			; (mov r8, r8)
 8001bd8:	08001beb 	.word	0x08001beb
 8001bdc:	08001c1b 	.word	0x08001c1b
 8001be0:	08001bf7 	.word	0x08001bf7
 8001be4:	ffffbfff 	.word	0xffffbfff

08001be8 <HAL_SPI_TxHalfCpltCallback>:
 8001be8:	4770      	bx	lr

08001bea <SPI_DMAHalfTransmitCplt>:
 8001bea:	b510      	push	{r4, lr}
 8001bec:	6a40      	ldr	r0, [r0, #36]	; 0x24
 8001bee:	f7ff fffb 	bl	8001be8 <HAL_SPI_TxHalfCpltCallback>
 8001bf2:	bd10      	pop	{r4, pc}

08001bf4 <HAL_SPI_ErrorCallback>:
 8001bf4:	4770      	bx	lr

08001bf6 <SPI_DMAError>:
 8001bf6:	2103      	movs	r1, #3
 8001bf8:	6a40      	ldr	r0, [r0, #36]	; 0x24
 8001bfa:	b510      	push	{r4, lr}
 8001bfc:	6802      	ldr	r2, [r0, #0]
 8001bfe:	6853      	ldr	r3, [r2, #4]
 8001c00:	438b      	bics	r3, r1
 8001c02:	6053      	str	r3, [r2, #4]
 8001c04:	2310      	movs	r3, #16
 8001c06:	6e02      	ldr	r2, [r0, #96]	; 0x60
 8001c08:	4313      	orrs	r3, r2
 8001c0a:	6603      	str	r3, [r0, #96]	; 0x60
 8001c0c:	0003      	movs	r3, r0
 8001c0e:	2201      	movs	r2, #1
 8001c10:	335d      	adds	r3, #93	; 0x5d
 8001c12:	701a      	strb	r2, [r3, #0]
 8001c14:	f7ff ffee 	bl	8001bf4 <HAL_SPI_ErrorCallback>
 8001c18:	bd10      	pop	{r4, pc}

08001c1a <SPI_DMATransmitCplt>:
 8001c1a:	b537      	push	{r0, r1, r2, r4, r5, lr}
 8001c1c:	0005      	movs	r5, r0
 8001c1e:	6a44      	ldr	r4, [r0, #36]	; 0x24
 8001c20:	f7fe fe88 	bl	8000934 <HAL_GetTick>
 8001c24:	682b      	ldr	r3, [r5, #0]
 8001c26:	2520      	movs	r5, #32
 8001c28:	681b      	ldr	r3, [r3, #0]
 8001c2a:	0002      	movs	r2, r0
 8001c2c:	422b      	tst	r3, r5
 8001c2e:	d127      	bne.n	8001c80 <SPI_DMATransmitCplt+0x66>
 8001c30:	2002      	movs	r0, #2
 8001c32:	6823      	ldr	r3, [r4, #0]
 8001c34:	6859      	ldr	r1, [r3, #4]
 8001c36:	43a9      	bics	r1, r5
 8001c38:	6059      	str	r1, [r3, #4]
 8001c3a:	6859      	ldr	r1, [r3, #4]
 8001c3c:	4381      	bics	r1, r0
 8001c3e:	6059      	str	r1, [r3, #4]
 8001c40:	0020      	movs	r0, r4
 8001c42:	2164      	movs	r1, #100	; 0x64
 8001c44:	f7ff fea8 	bl	8001998 <SPI_EndRxTxTransaction>
 8001c48:	2800      	cmp	r0, #0
 8001c4a:	d002      	beq.n	8001c52 <SPI_DMATransmitCplt+0x38>
 8001c4c:	6e23      	ldr	r3, [r4, #96]	; 0x60
 8001c4e:	431d      	orrs	r5, r3
 8001c50:	6625      	str	r5, [r4, #96]	; 0x60
 8001c52:	68a3      	ldr	r3, [r4, #8]
 8001c54:	2b00      	cmp	r3, #0
 8001c56:	d106      	bne.n	8001c66 <SPI_DMATransmitCplt+0x4c>
 8001c58:	9301      	str	r3, [sp, #4]
 8001c5a:	6823      	ldr	r3, [r4, #0]
 8001c5c:	68da      	ldr	r2, [r3, #12]
 8001c5e:	9201      	str	r2, [sp, #4]
 8001c60:	689b      	ldr	r3, [r3, #8]
 8001c62:	9301      	str	r3, [sp, #4]
 8001c64:	9b01      	ldr	r3, [sp, #4]
 8001c66:	2300      	movs	r3, #0
 8001c68:	87e3      	strh	r3, [r4, #62]	; 0x3e
 8001c6a:	0023      	movs	r3, r4
 8001c6c:	2201      	movs	r2, #1
 8001c6e:	335d      	adds	r3, #93	; 0x5d
 8001c70:	701a      	strb	r2, [r3, #0]
 8001c72:	6e23      	ldr	r3, [r4, #96]	; 0x60
 8001c74:	2b00      	cmp	r3, #0
 8001c76:	d003      	beq.n	8001c80 <SPI_DMATransmitCplt+0x66>
 8001c78:	0020      	movs	r0, r4
 8001c7a:	f7ff ffbb 	bl	8001bf4 <HAL_SPI_ErrorCallback>
 8001c7e:	bd37      	pop	{r0, r1, r2, r4, r5, pc}
 8001c80:	0020      	movs	r0, r4
 8001c82:	f7fe fd03 	bl	800068c <HAL_SPI_TxCpltCallback>
 8001c86:	e7fa      	b.n	8001c7e <SPI_DMATransmitCplt+0x64>

08001c88 <HAL_SPI_IRQHandler>:
 8001c88:	6803      	ldr	r3, [r0, #0]
 8001c8a:	b5f0      	push	{r4, r5, r6, r7, lr}
 8001c8c:	0004      	movs	r4, r0
 8001c8e:	6858      	ldr	r0, [r3, #4]
 8001c90:	689a      	ldr	r2, [r3, #8]
 8001c92:	2501      	movs	r5, #1
 8001c94:	0991      	lsrs	r1, r2, #6
 8001c96:	000f      	movs	r7, r1
 8001c98:	b085      	sub	sp, #20
 8001c9a:	402f      	ands	r7, r5
 8001c9c:	4229      	tst	r1, r5
 8001c9e:	d109      	bne.n	8001cb4 <HAL_SPI_IRQHandler+0x2c>
 8001ca0:	422a      	tst	r2, r5
 8001ca2:	d007      	beq.n	8001cb4 <HAL_SPI_IRQHandler+0x2c>
 8001ca4:	0986      	lsrs	r6, r0, #6
 8001ca6:	422e      	tst	r6, r5
 8001ca8:	d004      	beq.n	8001cb4 <HAL_SPI_IRQHandler+0x2c>
 8001caa:	6ce3      	ldr	r3, [r4, #76]	; 0x4c
 8001cac:	0020      	movs	r0, r4
 8001cae:	4798      	blx	r3
 8001cb0:	b005      	add	sp, #20
 8001cb2:	bdf0      	pop	{r4, r5, r6, r7, pc}
 8001cb4:	2501      	movs	r5, #1
 8001cb6:	0796      	lsls	r6, r2, #30
 8001cb8:	d504      	bpl.n	8001cc4 <HAL_SPI_IRQHandler+0x3c>
 8001cba:	09c6      	lsrs	r6, r0, #7
 8001cbc:	422e      	tst	r6, r5
 8001cbe:	d001      	beq.n	8001cc4 <HAL_SPI_IRQHandler+0x3c>
 8001cc0:	6d23      	ldr	r3, [r4, #80]	; 0x50
 8001cc2:	e7f3      	b.n	8001cac <HAL_SPI_IRQHandler+0x24>
 8001cc4:	2501      	movs	r5, #1
 8001cc6:	0956      	lsrs	r6, r2, #5
 8001cc8:	4331      	orrs	r1, r6
 8001cca:	0a12      	lsrs	r2, r2, #8
 8001ccc:	402a      	ands	r2, r5
 8001cce:	4029      	ands	r1, r5
 8001cd0:	4311      	orrs	r1, r2
 8001cd2:	d0ed      	beq.n	8001cb0 <HAL_SPI_IRQHandler+0x28>
 8001cd4:	0941      	lsrs	r1, r0, #5
 8001cd6:	4229      	tst	r1, r5
 8001cd8:	d0ea      	beq.n	8001cb0 <HAL_SPI_IRQHandler+0x28>
 8001cda:	2f00      	cmp	r7, #0
 8001cdc:	d00f      	beq.n	8001cfe <HAL_SPI_IRQHandler+0x76>
 8001cde:	0021      	movs	r1, r4
 8001ce0:	315d      	adds	r1, #93	; 0x5d
 8001ce2:	7809      	ldrb	r1, [r1, #0]
 8001ce4:	2903      	cmp	r1, #3
 8001ce6:	d050      	beq.n	8001d8a <HAL_SPI_IRQHandler+0x102>
 8001ce8:	2104      	movs	r1, #4
 8001cea:	6e25      	ldr	r5, [r4, #96]	; 0x60
 8001cec:	4329      	orrs	r1, r5
 8001cee:	6621      	str	r1, [r4, #96]	; 0x60
 8001cf0:	2100      	movs	r1, #0
 8001cf2:	9100      	str	r1, [sp, #0]
 8001cf4:	68d9      	ldr	r1, [r3, #12]
 8001cf6:	9100      	str	r1, [sp, #0]
 8001cf8:	6899      	ldr	r1, [r3, #8]
 8001cfa:	9100      	str	r1, [sp, #0]
 8001cfc:	9900      	ldr	r1, [sp, #0]
 8001cfe:	2101      	movs	r1, #1
 8001d00:	420e      	tst	r6, r1
 8001d02:	d00b      	beq.n	8001d1c <HAL_SPI_IRQHandler+0x94>
 8001d04:	6e25      	ldr	r5, [r4, #96]	; 0x60
 8001d06:	4329      	orrs	r1, r5
 8001d08:	6621      	str	r1, [r4, #96]	; 0x60
 8001d0a:	2100      	movs	r1, #0
 8001d0c:	2540      	movs	r5, #64	; 0x40
 8001d0e:	9102      	str	r1, [sp, #8]
 8001d10:	6899      	ldr	r1, [r3, #8]
 8001d12:	9102      	str	r1, [sp, #8]
 8001d14:	6819      	ldr	r1, [r3, #0]
 8001d16:	43a9      	bics	r1, r5
 8001d18:	6019      	str	r1, [r3, #0]
 8001d1a:	9902      	ldr	r1, [sp, #8]
 8001d1c:	2a00      	cmp	r2, #0
 8001d1e:	d008      	beq.n	8001d32 <HAL_SPI_IRQHandler+0xaa>
 8001d20:	2208      	movs	r2, #8
 8001d22:	6e21      	ldr	r1, [r4, #96]	; 0x60
 8001d24:	430a      	orrs	r2, r1
 8001d26:	6622      	str	r2, [r4, #96]	; 0x60
 8001d28:	2200      	movs	r2, #0
 8001d2a:	9203      	str	r2, [sp, #12]
 8001d2c:	689a      	ldr	r2, [r3, #8]
 8001d2e:	9203      	str	r2, [sp, #12]
 8001d30:	9a03      	ldr	r2, [sp, #12]
 8001d32:	6e22      	ldr	r2, [r4, #96]	; 0x60
 8001d34:	2a00      	cmp	r2, #0
 8001d36:	d0bb      	beq.n	8001cb0 <HAL_SPI_IRQHandler+0x28>
 8001d38:	21e0      	movs	r1, #224	; 0xe0
 8001d3a:	685a      	ldr	r2, [r3, #4]
 8001d3c:	438a      	bics	r2, r1
 8001d3e:	605a      	str	r2, [r3, #4]
 8001d40:	0022      	movs	r2, r4
 8001d42:	39df      	subs	r1, #223	; 0xdf
 8001d44:	325d      	adds	r2, #93	; 0x5d
 8001d46:	7011      	strb	r1, [r2, #0]
 8001d48:	3102      	adds	r1, #2
 8001d4a:	4208      	tst	r0, r1
 8001d4c:	d025      	beq.n	8001d9a <HAL_SPI_IRQHandler+0x112>
 8001d4e:	685a      	ldr	r2, [r3, #4]
 8001d50:	6da0      	ldr	r0, [r4, #88]	; 0x58
 8001d52:	438a      	bics	r2, r1
 8001d54:	605a      	str	r2, [r3, #4]
 8001d56:	2800      	cmp	r0, #0
 8001d58:	d009      	beq.n	8001d6e <HAL_SPI_IRQHandler+0xe6>
 8001d5a:	4b12      	ldr	r3, [pc, #72]	; (8001da4 <HAL_SPI_IRQHandler+0x11c>)
 8001d5c:	6343      	str	r3, [r0, #52]	; 0x34
 8001d5e:	f7fe feaf 	bl	8000ac0 <HAL_DMA_Abort_IT>
 8001d62:	2800      	cmp	r0, #0
 8001d64:	d003      	beq.n	8001d6e <HAL_SPI_IRQHandler+0xe6>
 8001d66:	2340      	movs	r3, #64	; 0x40
 8001d68:	6e22      	ldr	r2, [r4, #96]	; 0x60
 8001d6a:	4313      	orrs	r3, r2
 8001d6c:	6623      	str	r3, [r4, #96]	; 0x60
 8001d6e:	6d60      	ldr	r0, [r4, #84]	; 0x54
 8001d70:	2800      	cmp	r0, #0
 8001d72:	d09d      	beq.n	8001cb0 <HAL_SPI_IRQHandler+0x28>
 8001d74:	4b0b      	ldr	r3, [pc, #44]	; (8001da4 <HAL_SPI_IRQHandler+0x11c>)
 8001d76:	6343      	str	r3, [r0, #52]	; 0x34
 8001d78:	f7fe fea2 	bl	8000ac0 <HAL_DMA_Abort_IT>
 8001d7c:	2800      	cmp	r0, #0
 8001d7e:	d097      	beq.n	8001cb0 <HAL_SPI_IRQHandler+0x28>
 8001d80:	2340      	movs	r3, #64	; 0x40
 8001d82:	6e22      	ldr	r2, [r4, #96]	; 0x60
 8001d84:	4313      	orrs	r3, r2
 8001d86:	6623      	str	r3, [r4, #96]	; 0x60
 8001d88:	e792      	b.n	8001cb0 <HAL_SPI_IRQHandler+0x28>
 8001d8a:	2200      	movs	r2, #0
 8001d8c:	9201      	str	r2, [sp, #4]
 8001d8e:	68da      	ldr	r2, [r3, #12]
 8001d90:	9201      	str	r2, [sp, #4]
 8001d92:	689b      	ldr	r3, [r3, #8]
 8001d94:	9301      	str	r3, [sp, #4]
 8001d96:	9b01      	ldr	r3, [sp, #4]
 8001d98:	e78a      	b.n	8001cb0 <HAL_SPI_IRQHandler+0x28>
 8001d9a:	0020      	movs	r0, r4
 8001d9c:	f7ff ff2a 	bl	8001bf4 <HAL_SPI_ErrorCallback>
 8001da0:	e786      	b.n	8001cb0 <HAL_SPI_IRQHandler+0x28>
 8001da2:	46c0      	nop			; (mov r8, r8)
 8001da4:	08001da9 	.word	0x08001da9

08001da8 <SPI_DMAAbortOnError>:
 8001da8:	6a40      	ldr	r0, [r0, #36]	; 0x24
 8001daa:	2300      	movs	r3, #0
 8001dac:	0002      	movs	r2, r0
 8001dae:	b510      	push	{r4, lr}
 8001db0:	3208      	adds	r2, #8
 8001db2:	87d3      	strh	r3, [r2, #62]	; 0x3e
 8001db4:	87c3      	strh	r3, [r0, #62]	; 0x3e
 8001db6:	f7ff ff1d 	bl	8001bf4 <HAL_SPI_ErrorCallback>
 8001dba:	bd10      	pop	{r4, pc}

08001dbc <UART_SetConfig>:
 8001dbc:	b570      	push	{r4, r5, r6, lr}
 8001dbe:	0004      	movs	r4, r0
 8001dc0:	6925      	ldr	r5, [r4, #16]
 8001dc2:	68a2      	ldr	r2, [r4, #8]
 8001dc4:	6801      	ldr	r1, [r0, #0]
 8001dc6:	432a      	orrs	r2, r5
 8001dc8:	6965      	ldr	r5, [r4, #20]
 8001dca:	69c3      	ldr	r3, [r0, #28]
 8001dcc:	432a      	orrs	r2, r5
 8001dce:	6808      	ldr	r0, [r1, #0]
 8001dd0:	4d39      	ldr	r5, [pc, #228]	; (8001eb8 <UART_SetConfig+0xfc>)
 8001dd2:	431a      	orrs	r2, r3
 8001dd4:	4028      	ands	r0, r5
 8001dd6:	4302      	orrs	r2, r0
 8001dd8:	600a      	str	r2, [r1, #0]
 8001dda:	684a      	ldr	r2, [r1, #4]
 8001ddc:	4837      	ldr	r0, [pc, #220]	; (8001ebc <UART_SetConfig+0x100>)
 8001dde:	6a25      	ldr	r5, [r4, #32]
 8001de0:	4002      	ands	r2, r0
 8001de2:	68e0      	ldr	r0, [r4, #12]
 8001de4:	4302      	orrs	r2, r0
 8001de6:	604a      	str	r2, [r1, #4]
 8001de8:	69a2      	ldr	r2, [r4, #24]
 8001dea:	6888      	ldr	r0, [r1, #8]
 8001dec:	432a      	orrs	r2, r5
 8001dee:	4d34      	ldr	r5, [pc, #208]	; (8001ec0 <UART_SetConfig+0x104>)
 8001df0:	4028      	ands	r0, r5
 8001df2:	4302      	orrs	r2, r0
 8001df4:	608a      	str	r2, [r1, #8]
 8001df6:	2103      	movs	r1, #3
 8001df8:	4a32      	ldr	r2, [pc, #200]	; (8001ec4 <UART_SetConfig+0x108>)
 8001dfa:	6b12      	ldr	r2, [r2, #48]	; 0x30
 8001dfc:	400a      	ands	r2, r1
 8001dfe:	2180      	movs	r1, #128	; 0x80
 8001e00:	3a01      	subs	r2, #1
 8001e02:	0209      	lsls	r1, r1, #8
 8001e04:	2a02      	cmp	r2, #2
 8001e06:	d84c      	bhi.n	8001ea2 <UART_SetConfig+0xe6>
 8001e08:	482f      	ldr	r0, [pc, #188]	; (8001ec8 <UART_SetConfig+0x10c>)
 8001e0a:	5c80      	ldrb	r0, [r0, r2]
 8001e0c:	428b      	cmp	r3, r1
 8001e0e:	d124      	bne.n	8001e5a <UART_SetConfig+0x9e>
 8001e10:	2808      	cmp	r0, #8
 8001e12:	d817      	bhi.n	8001e44 <UART_SetConfig+0x88>
 8001e14:	f7fe f982 	bl	800011c <__gnu_thumb1_case_uqi>
 8001e18:	16081647 	.word	0x16081647
 8001e1c:	16161605 	.word	0x16161605
 8001e20:	09          	.byte	0x09
 8001e21:	00          	.byte	0x00
 8001e22:	f7ff f96f 	bl	8001104 <HAL_RCC_GetSysClockFreq>
 8001e26:	e040      	b.n	8001eaa <UART_SetConfig+0xee>
 8001e28:	4b28      	ldr	r3, [pc, #160]	; (8001ecc <UART_SetConfig+0x110>)
 8001e2a:	0058      	lsls	r0, r3, #1
 8001e2c:	6863      	ldr	r3, [r4, #4]
 8001e2e:	6861      	ldr	r1, [r4, #4]
 8001e30:	085b      	lsrs	r3, r3, #1
 8001e32:	18c0      	adds	r0, r0, r3
 8001e34:	f7fe f97c 	bl	8000130 <__udivsi3>
 8001e38:	4925      	ldr	r1, [pc, #148]	; (8001ed0 <UART_SetConfig+0x114>)
 8001e3a:	b282      	uxth	r2, r0
 8001e3c:	3a10      	subs	r2, #16
 8001e3e:	0403      	lsls	r3, r0, #16
 8001e40:	428a      	cmp	r2, r1
 8001e42:	d901      	bls.n	8001e48 <UART_SetConfig+0x8c>
 8001e44:	2001      	movs	r0, #1
 8001e46:	e033      	b.n	8001eb0 <UART_SetConfig+0xf4>
 8001e48:	220f      	movs	r2, #15
 8001e4a:	031b      	lsls	r3, r3, #12
 8001e4c:	4390      	bics	r0, r2
 8001e4e:	b280      	uxth	r0, r0
 8001e50:	6822      	ldr	r2, [r4, #0]
 8001e52:	0f5b      	lsrs	r3, r3, #29
 8001e54:	4318      	orrs	r0, r3
 8001e56:	60d0      	str	r0, [r2, #12]
 8001e58:	e029      	b.n	8001eae <UART_SetConfig+0xf2>
 8001e5a:	2808      	cmp	r0, #8
 8001e5c:	d8f2      	bhi.n	8001e44 <UART_SetConfig+0x88>
 8001e5e:	f7fe f953 	bl	8000108 <__gnu_thumb1_case_sqi>
 8001e62:	f116      	.short	0xf116
 8001e64:	f11bf11e 	.word	0xf11bf11e
 8001e68:	f1f1      	.short	0xf1f1
 8001e6a:	05          	.byte	0x05
 8001e6b:	00          	.byte	0x00
 8001e6c:	2080      	movs	r0, #128	; 0x80
 8001e6e:	0200      	lsls	r0, r0, #8
 8001e70:	6863      	ldr	r3, [r4, #4]
 8001e72:	6861      	ldr	r1, [r4, #4]
 8001e74:	085b      	lsrs	r3, r3, #1
 8001e76:	1818      	adds	r0, r3, r0
 8001e78:	f7fe f95a 	bl	8000130 <__udivsi3>
 8001e7c:	b280      	uxth	r0, r0
 8001e7e:	0002      	movs	r2, r0
 8001e80:	4b13      	ldr	r3, [pc, #76]	; (8001ed0 <UART_SetConfig+0x114>)
 8001e82:	3a10      	subs	r2, #16
 8001e84:	429a      	cmp	r2, r3
 8001e86:	d8dd      	bhi.n	8001e44 <UART_SetConfig+0x88>
 8001e88:	6823      	ldr	r3, [r4, #0]
 8001e8a:	60d8      	str	r0, [r3, #12]
 8001e8c:	e00f      	b.n	8001eae <UART_SetConfig+0xf2>
 8001e8e:	f7ff f9f5 	bl	800127c <HAL_RCC_GetPCLK1Freq>
 8001e92:	2800      	cmp	r0, #0
 8001e94:	d00b      	beq.n	8001eae <UART_SetConfig+0xf2>
 8001e96:	e7eb      	b.n	8001e70 <UART_SetConfig+0xb4>
 8001e98:	f7ff f934 	bl	8001104 <HAL_RCC_GetSysClockFreq>
 8001e9c:	e7f9      	b.n	8001e92 <UART_SetConfig+0xd6>
 8001e9e:	480b      	ldr	r0, [pc, #44]	; (8001ecc <UART_SetConfig+0x110>)
 8001ea0:	e7e6      	b.n	8001e70 <UART_SetConfig+0xb4>
 8001ea2:	428b      	cmp	r3, r1
 8001ea4:	d1f3      	bne.n	8001e8e <UART_SetConfig+0xd2>
 8001ea6:	f7ff f9e9 	bl	800127c <HAL_RCC_GetPCLK1Freq>
 8001eaa:	1e03      	subs	r3, r0, #0
 8001eac:	d1bd      	bne.n	8001e2a <UART_SetConfig+0x6e>
 8001eae:	2000      	movs	r0, #0
 8001eb0:	2300      	movs	r3, #0
 8001eb2:	6663      	str	r3, [r4, #100]	; 0x64
 8001eb4:	66a3      	str	r3, [r4, #104]	; 0x68
 8001eb6:	bd70      	pop	{r4, r5, r6, pc}
 8001eb8:	ffff69f3 	.word	0xffff69f3
 8001ebc:	ffffcfff 	.word	0xffffcfff
 8001ec0:	fffff4ff 	.word	0xfffff4ff
 8001ec4:	40021000 	.word	0x40021000
 8001ec8:	08002257 	.word	0x08002257
 8001ecc:	007a1200 	.word	0x007a1200
 8001ed0:	0000ffef 	.word	0x0000ffef

08001ed4 <UART_AdvFeatureConfig>:
 8001ed4:	6a43      	ldr	r3, [r0, #36]	; 0x24
 8001ed6:	b530      	push	{r4, r5, lr}
 8001ed8:	07da      	lsls	r2, r3, #31
 8001eda:	d506      	bpl.n	8001eea <UART_AdvFeatureConfig+0x16>
 8001edc:	6801      	ldr	r1, [r0, #0]
 8001ede:	4c28      	ldr	r4, [pc, #160]	; (8001f80 <UART_AdvFeatureConfig+0xac>)
 8001ee0:	684a      	ldr	r2, [r1, #4]
 8001ee2:	4022      	ands	r2, r4
 8001ee4:	6a84      	ldr	r4, [r0, #40]	; 0x28
 8001ee6:	4322      	orrs	r2, r4
 8001ee8:	604a      	str	r2, [r1, #4]
 8001eea:	079a      	lsls	r2, r3, #30
 8001eec:	d506      	bpl.n	8001efc <UART_AdvFeatureConfig+0x28>
 8001eee:	6801      	ldr	r1, [r0, #0]
 8001ef0:	4c24      	ldr	r4, [pc, #144]	; (8001f84 <UART_AdvFeatureConfig+0xb0>)
 8001ef2:	684a      	ldr	r2, [r1, #4]
 8001ef4:	4022      	ands	r2, r4
 8001ef6:	6ac4      	ldr	r4, [r0, #44]	; 0x2c
 8001ef8:	4322      	orrs	r2, r4
 8001efa:	604a      	str	r2, [r1, #4]
 8001efc:	075a      	lsls	r2, r3, #29
 8001efe:	d506      	bpl.n	8001f0e <UART_AdvFeatureConfig+0x3a>
 8001f00:	6801      	ldr	r1, [r0, #0]
 8001f02:	4c21      	ldr	r4, [pc, #132]	; (8001f88 <UART_AdvFeatureConfig+0xb4>)
 8001f04:	684a      	ldr	r2, [r1, #4]
 8001f06:	4022      	ands	r2, r4
 8001f08:	6b04      	ldr	r4, [r0, #48]	; 0x30
 8001f0a:	4322      	orrs	r2, r4
 8001f0c:	604a      	str	r2, [r1, #4]
 8001f0e:	071a      	lsls	r2, r3, #28
 8001f10:	d506      	bpl.n	8001f20 <UART_AdvFeatureConfig+0x4c>
 8001f12:	6801      	ldr	r1, [r0, #0]
 8001f14:	4c1d      	ldr	r4, [pc, #116]	; (8001f8c <UART_AdvFeatureConfig+0xb8>)
 8001f16:	684a      	ldr	r2, [r1, #4]
 8001f18:	4022      	ands	r2, r4
 8001f1a:	6b44      	ldr	r4, [r0, #52]	; 0x34
 8001f1c:	4322      	orrs	r2, r4
 8001f1e:	604a      	str	r2, [r1, #4]
 8001f20:	06da      	lsls	r2, r3, #27
 8001f22:	d506      	bpl.n	8001f32 <UART_AdvFeatureConfig+0x5e>
 8001f24:	6801      	ldr	r1, [r0, #0]
 8001f26:	4c1a      	ldr	r4, [pc, #104]	; (8001f90 <UART_AdvFeatureConfig+0xbc>)
 8001f28:	688a      	ldr	r2, [r1, #8]
 8001f2a:	4022      	ands	r2, r4
 8001f2c:	6b84      	ldr	r4, [r0, #56]	; 0x38
 8001f2e:	4322      	orrs	r2, r4
 8001f30:	608a      	str	r2, [r1, #8]
 8001f32:	069a      	lsls	r2, r3, #26
 8001f34:	d506      	bpl.n	8001f44 <UART_AdvFeatureConfig+0x70>
 8001f36:	6801      	ldr	r1, [r0, #0]
 8001f38:	4c16      	ldr	r4, [pc, #88]	; (8001f94 <UART_AdvFeatureConfig+0xc0>)
 8001f3a:	688a      	ldr	r2, [r1, #8]
 8001f3c:	4022      	ands	r2, r4
 8001f3e:	6bc4      	ldr	r4, [r0, #60]	; 0x3c
 8001f40:	4322      	orrs	r2, r4
 8001f42:	608a      	str	r2, [r1, #8]
 8001f44:	065a      	lsls	r2, r3, #25
 8001f46:	d510      	bpl.n	8001f6a <UART_AdvFeatureConfig+0x96>
 8001f48:	6801      	ldr	r1, [r0, #0]
 8001f4a:	4d13      	ldr	r5, [pc, #76]	; (8001f98 <UART_AdvFeatureConfig+0xc4>)
 8001f4c:	684a      	ldr	r2, [r1, #4]
 8001f4e:	6c04      	ldr	r4, [r0, #64]	; 0x40
 8001f50:	402a      	ands	r2, r5
 8001f52:	4322      	orrs	r2, r4
 8001f54:	604a      	str	r2, [r1, #4]
 8001f56:	2280      	movs	r2, #128	; 0x80
 8001f58:	0352      	lsls	r2, r2, #13
 8001f5a:	4294      	cmp	r4, r2
 8001f5c:	d105      	bne.n	8001f6a <UART_AdvFeatureConfig+0x96>
 8001f5e:	684a      	ldr	r2, [r1, #4]
 8001f60:	4c0e      	ldr	r4, [pc, #56]	; (8001f9c <UART_AdvFeatureConfig+0xc8>)
 8001f62:	4022      	ands	r2, r4
 8001f64:	6c44      	ldr	r4, [r0, #68]	; 0x44
 8001f66:	4322      	orrs	r2, r4
 8001f68:	604a      	str	r2, [r1, #4]
 8001f6a:	061b      	lsls	r3, r3, #24
 8001f6c:	d506      	bpl.n	8001f7c <UART_AdvFeatureConfig+0xa8>
 8001f6e:	6802      	ldr	r2, [r0, #0]
 8001f70:	490b      	ldr	r1, [pc, #44]	; (8001fa0 <UART_AdvFeatureConfig+0xcc>)
 8001f72:	6853      	ldr	r3, [r2, #4]
 8001f74:	400b      	ands	r3, r1
 8001f76:	6c81      	ldr	r1, [r0, #72]	; 0x48
 8001f78:	430b      	orrs	r3, r1
 8001f7a:	6053      	str	r3, [r2, #4]
 8001f7c:	bd30      	pop	{r4, r5, pc}
 8001f7e:	46c0      	nop			; (mov r8, r8)
 8001f80:	fffdffff 	.word	0xfffdffff
 8001f84:	fffeffff 	.word	0xfffeffff
 8001f88:	fffbffff 	.word	0xfffbffff
 8001f8c:	ffff7fff 	.word	0xffff7fff
 8001f90:	ffffefff 	.word	0xffffefff
 8001f94:	ffffdfff 	.word	0xffffdfff
 8001f98:	ffefffff 	.word	0xffefffff
 8001f9c:	ff9fffff 	.word	0xff9fffff
 8001fa0:	fff7ffff 	.word	0xfff7ffff

08001fa4 <UART_WaitOnFlagUntilTimeout>:
 8001fa4:	b5f7      	push	{r0, r1, r2, r4, r5, r6, r7, lr}
 8001fa6:	2780      	movs	r7, #128	; 0x80
 8001fa8:	0004      	movs	r4, r0
 8001faa:	000d      	movs	r5, r1
 8001fac:	0016      	movs	r6, r2
 8001fae:	9301      	str	r3, [sp, #4]
 8001fb0:	013f      	lsls	r7, r7, #4
 8001fb2:	6822      	ldr	r2, [r4, #0]
 8001fb4:	69d3      	ldr	r3, [r2, #28]
 8001fb6:	402b      	ands	r3, r5
 8001fb8:	1b5b      	subs	r3, r3, r5
 8001fba:	4259      	negs	r1, r3
 8001fbc:	414b      	adcs	r3, r1
 8001fbe:	42b3      	cmp	r3, r6
 8001fc0:	d001      	beq.n	8001fc6 <UART_WaitOnFlagUntilTimeout+0x22>
 8001fc2:	2000      	movs	r0, #0
 8001fc4:	e028      	b.n	8002018 <UART_WaitOnFlagUntilTimeout+0x74>
 8001fc6:	9b08      	ldr	r3, [sp, #32]
 8001fc8:	3301      	adds	r3, #1
 8001fca:	d0f3      	beq.n	8001fb4 <UART_WaitOnFlagUntilTimeout+0x10>
 8001fcc:	f7fe fcb2 	bl	8000934 <HAL_GetTick>
 8001fd0:	9b01      	ldr	r3, [sp, #4]
 8001fd2:	1ac0      	subs	r0, r0, r3
 8001fd4:	9b08      	ldr	r3, [sp, #32]
 8001fd6:	4298      	cmp	r0, r3
 8001fd8:	d801      	bhi.n	8001fde <UART_WaitOnFlagUntilTimeout+0x3a>
 8001fda:	2b00      	cmp	r3, #0
 8001fdc:	d11d      	bne.n	800201a <UART_WaitOnFlagUntilTimeout+0x76>
 8001fde:	f3ef 8010 	mrs	r0, PRIMASK
 8001fe2:	2201      	movs	r2, #1
 8001fe4:	f382 8810 	msr	PRIMASK, r2
 8001fe8:	6821      	ldr	r1, [r4, #0]
 8001fea:	4d1e      	ldr	r5, [pc, #120]	; (8002064 <UART_WaitOnFlagUntilTimeout+0xc0>)
 8001fec:	680b      	ldr	r3, [r1, #0]
 8001fee:	402b      	ands	r3, r5
 8001ff0:	600b      	str	r3, [r1, #0]
 8001ff2:	f380 8810 	msr	PRIMASK, r0
 8001ff6:	f3ef 8010 	mrs	r0, PRIMASK
 8001ffa:	f382 8810 	msr	PRIMASK, r2
 8001ffe:	6821      	ldr	r1, [r4, #0]
 8002000:	688b      	ldr	r3, [r1, #8]
 8002002:	4393      	bics	r3, r2
 8002004:	608b      	str	r3, [r1, #8]
 8002006:	f380 8810 	msr	PRIMASK, r0
 800200a:	2320      	movs	r3, #32
 800200c:	67a3      	str	r3, [r4, #120]	; 0x78
 800200e:	67e3      	str	r3, [r4, #124]	; 0x7c
 8002010:	2300      	movs	r3, #0
 8002012:	2003      	movs	r0, #3
 8002014:	3474      	adds	r4, #116	; 0x74
 8002016:	7023      	strb	r3, [r4, #0]
 8002018:	bdfe      	pop	{r1, r2, r3, r4, r5, r6, r7, pc}
 800201a:	2104      	movs	r1, #4
 800201c:	6823      	ldr	r3, [r4, #0]
 800201e:	681a      	ldr	r2, [r3, #0]
 8002020:	420a      	tst	r2, r1
 8002022:	d0c6      	beq.n	8001fb2 <UART_WaitOnFlagUntilTimeout+0xe>
 8002024:	69da      	ldr	r2, [r3, #28]
 8002026:	423a      	tst	r2, r7
 8002028:	d0c3      	beq.n	8001fb2 <UART_WaitOnFlagUntilTimeout+0xe>
 800202a:	621f      	str	r7, [r3, #32]
 800202c:	f3ef 8010 	mrs	r0, PRIMASK
 8002030:	2201      	movs	r2, #1
 8002032:	f382 8810 	msr	PRIMASK, r2
 8002036:	6821      	ldr	r1, [r4, #0]
 8002038:	4d0a      	ldr	r5, [pc, #40]	; (8002064 <UART_WaitOnFlagUntilTimeout+0xc0>)
 800203a:	680b      	ldr	r3, [r1, #0]
 800203c:	402b      	ands	r3, r5
 800203e:	600b      	str	r3, [r1, #0]
 8002040:	f380 8810 	msr	PRIMASK, r0
 8002044:	f3ef 8010 	mrs	r0, PRIMASK
 8002048:	f382 8810 	msr	PRIMASK, r2
 800204c:	6821      	ldr	r1, [r4, #0]
 800204e:	688b      	ldr	r3, [r1, #8]
 8002050:	4393      	bics	r3, r2
 8002052:	608b      	str	r3, [r1, #8]
 8002054:	f380 8810 	msr	PRIMASK, r0
 8002058:	2320      	movs	r3, #32
 800205a:	1d22      	adds	r2, r4, #4
 800205c:	67a3      	str	r3, [r4, #120]	; 0x78
 800205e:	67e3      	str	r3, [r4, #124]	; 0x7c
 8002060:	67d3      	str	r3, [r2, #124]	; 0x7c
 8002062:	e7d5      	b.n	8002010 <UART_WaitOnFlagUntilTimeout+0x6c>
 8002064:	fffffe5f 	.word	0xfffffe5f

08002068 <UART_CheckIdleState>:
 8002068:	b573      	push	{r0, r1, r4, r5, r6, lr}
 800206a:	2600      	movs	r6, #0
 800206c:	0004      	movs	r4, r0
 800206e:	1d03      	adds	r3, r0, #4
 8002070:	67de      	str	r6, [r3, #124]	; 0x7c
 8002072:	f7fe fc5f 	bl	8000934 <HAL_GetTick>
 8002076:	6823      	ldr	r3, [r4, #0]
 8002078:	0005      	movs	r5, r0
 800207a:	681b      	ldr	r3, [r3, #0]
 800207c:	071b      	lsls	r3, r3, #28
 800207e:	d416      	bmi.n	80020ae <UART_CheckIdleState+0x46>
 8002080:	6823      	ldr	r3, [r4, #0]
 8002082:	681b      	ldr	r3, [r3, #0]
 8002084:	075b      	lsls	r3, r3, #29
 8002086:	d50a      	bpl.n	800209e <UART_CheckIdleState+0x36>
 8002088:	2180      	movs	r1, #128	; 0x80
 800208a:	4b0f      	ldr	r3, [pc, #60]	; (80020c8 <UART_CheckIdleState+0x60>)
 800208c:	2200      	movs	r2, #0
 800208e:	9300      	str	r3, [sp, #0]
 8002090:	0020      	movs	r0, r4
 8002092:	002b      	movs	r3, r5
 8002094:	03c9      	lsls	r1, r1, #15
 8002096:	f7ff ff85 	bl	8001fa4 <UART_WaitOnFlagUntilTimeout>
 800209a:	2800      	cmp	r0, #0
 800209c:	d112      	bne.n	80020c4 <UART_CheckIdleState+0x5c>
 800209e:	2320      	movs	r3, #32
 80020a0:	2000      	movs	r0, #0
 80020a2:	67a3      	str	r3, [r4, #120]	; 0x78
 80020a4:	67e3      	str	r3, [r4, #124]	; 0x7c
 80020a6:	6620      	str	r0, [r4, #96]	; 0x60
 80020a8:	3474      	adds	r4, #116	; 0x74
 80020aa:	7020      	strb	r0, [r4, #0]
 80020ac:	e00b      	b.n	80020c6 <UART_CheckIdleState+0x5e>
 80020ae:	2180      	movs	r1, #128	; 0x80
 80020b0:	4b05      	ldr	r3, [pc, #20]	; (80020c8 <UART_CheckIdleState+0x60>)
 80020b2:	0032      	movs	r2, r6
 80020b4:	9300      	str	r3, [sp, #0]
 80020b6:	0389      	lsls	r1, r1, #14
 80020b8:	0003      	movs	r3, r0
 80020ba:	0020      	movs	r0, r4
 80020bc:	f7ff ff72 	bl	8001fa4 <UART_WaitOnFlagUntilTimeout>
 80020c0:	2800      	cmp	r0, #0
 80020c2:	d0dd      	beq.n	8002080 <UART_CheckIdleState+0x18>
 80020c4:	2003      	movs	r0, #3
 80020c6:	bd76      	pop	{r1, r2, r4, r5, r6, pc}
 80020c8:	01ffffff 	.word	0x01ffffff

080020cc <HAL_UART_Init>:
 80020cc:	b510      	push	{r4, lr}
 80020ce:	1e04      	subs	r4, r0, #0
 80020d0:	d101      	bne.n	80020d6 <HAL_UART_Init+0xa>
 80020d2:	2001      	movs	r0, #1
 80020d4:	bd10      	pop	{r4, pc}
 80020d6:	6f83      	ldr	r3, [r0, #120]	; 0x78
 80020d8:	2b00      	cmp	r3, #0
 80020da:	d104      	bne.n	80020e6 <HAL_UART_Init+0x1a>
 80020dc:	0002      	movs	r2, r0
 80020de:	3274      	adds	r2, #116	; 0x74
 80020e0:	7013      	strb	r3, [r2, #0]
 80020e2:	f7fe fb67 	bl	80007b4 <HAL_UART_MspInit>
 80020e6:	2324      	movs	r3, #36	; 0x24
 80020e8:	2101      	movs	r1, #1
 80020ea:	6822      	ldr	r2, [r4, #0]
 80020ec:	67a3      	str	r3, [r4, #120]	; 0x78
 80020ee:	6813      	ldr	r3, [r2, #0]
 80020f0:	0020      	movs	r0, r4
 80020f2:	438b      	bics	r3, r1
 80020f4:	6013      	str	r3, [r2, #0]
 80020f6:	f7ff fe61 	bl	8001dbc <UART_SetConfig>
 80020fa:	2801      	cmp	r0, #1
 80020fc:	d0e9      	beq.n	80020d2 <HAL_UART_Init+0x6>
 80020fe:	6a63      	ldr	r3, [r4, #36]	; 0x24
 8002100:	2b00      	cmp	r3, #0
 8002102:	d002      	beq.n	800210a <HAL_UART_Init+0x3e>
 8002104:	0020      	movs	r0, r4
 8002106:	f7ff fee5 	bl	8001ed4 <UART_AdvFeatureConfig>
 800210a:	6823      	ldr	r3, [r4, #0]
 800210c:	4907      	ldr	r1, [pc, #28]	; (800212c <HAL_UART_Init+0x60>)
 800210e:	685a      	ldr	r2, [r3, #4]
 8002110:	0020      	movs	r0, r4
 8002112:	400a      	ands	r2, r1
 8002114:	212a      	movs	r1, #42	; 0x2a
 8002116:	605a      	str	r2, [r3, #4]
 8002118:	689a      	ldr	r2, [r3, #8]
 800211a:	438a      	bics	r2, r1
 800211c:	609a      	str	r2, [r3, #8]
 800211e:	2201      	movs	r2, #1
 8002120:	6819      	ldr	r1, [r3, #0]
 8002122:	430a      	orrs	r2, r1
 8002124:	601a      	str	r2, [r3, #0]
 8002126:	f7ff ff9f 	bl	8002068 <UART_CheckIdleState>
 800212a:	e7d3      	b.n	80020d4 <HAL_UART_Init+0x8>
 800212c:	ffffb7ff 	.word	0xffffb7ff

08002130 <__libc_init_array>:
 8002130:	b570      	push	{r4, r5, r6, lr}
 8002132:	2600      	movs	r6, #0
 8002134:	4d0c      	ldr	r5, [pc, #48]	; (8002168 <__libc_init_array+0x38>)
 8002136:	4c0d      	ldr	r4, [pc, #52]	; (800216c <__libc_init_array+0x3c>)
 8002138:	1b64      	subs	r4, r4, r5
 800213a:	10a4      	asrs	r4, r4, #2
 800213c:	42a6      	cmp	r6, r4
 800213e:	d109      	bne.n	8002154 <__libc_init_array+0x24>
 8002140:	2600      	movs	r6, #0
 8002142:	f000 f82b 	bl	800219c <_init>
 8002146:	4d0a      	ldr	r5, [pc, #40]	; (8002170 <__libc_init_array+0x40>)
 8002148:	4c0a      	ldr	r4, [pc, #40]	; (8002174 <__libc_init_array+0x44>)
 800214a:	1b64      	subs	r4, r4, r5
 800214c:	10a4      	asrs	r4, r4, #2
 800214e:	42a6      	cmp	r6, r4
 8002150:	d105      	bne.n	800215e <__libc_init_array+0x2e>
 8002152:	bd70      	pop	{r4, r5, r6, pc}
 8002154:	00b3      	lsls	r3, r6, #2
 8002156:	58eb      	ldr	r3, [r5, r3]
 8002158:	4798      	blx	r3
 800215a:	3601      	adds	r6, #1
 800215c:	e7ee      	b.n	800213c <__libc_init_array+0xc>
 800215e:	00b3      	lsls	r3, r6, #2
 8002160:	58eb      	ldr	r3, [r5, r3]
 8002162:	4798      	blx	r3
 8002164:	3601      	adds	r6, #1
 8002166:	e7f2      	b.n	800214e <__libc_init_array+0x1e>
 8002168:	0800225c 	.word	0x0800225c
 800216c:	0800225c 	.word	0x0800225c
 8002170:	0800225c 	.word	0x0800225c
 8002174:	08002260 	.word	0x08002260

08002178 <memcpy>:
 8002178:	2300      	movs	r3, #0
 800217a:	b510      	push	{r4, lr}
 800217c:	429a      	cmp	r2, r3
 800217e:	d100      	bne.n	8002182 <memcpy+0xa>
 8002180:	bd10      	pop	{r4, pc}
 8002182:	5ccc      	ldrb	r4, [r1, r3]
 8002184:	54c4      	strb	r4, [r0, r3]
 8002186:	3301      	adds	r3, #1
 8002188:	e7f8      	b.n	800217c <memcpy+0x4>

0800218a <memset>:
 800218a:	0003      	movs	r3, r0
 800218c:	1882      	adds	r2, r0, r2
 800218e:	4293      	cmp	r3, r2
 8002190:	d100      	bne.n	8002194 <memset+0xa>
 8002192:	4770      	bx	lr
 8002194:	7019      	strb	r1, [r3, #0]
 8002196:	3301      	adds	r3, #1
 8002198:	e7f9      	b.n	800218e <memset+0x4>
	...

0800219c <_init>:
 800219c:	b5f8      	push	{r3, r4, r5, r6, r7, lr}
 800219e:	46c0      	nop			; (mov r8, r8)
 80021a0:	bcf8      	pop	{r3, r4, r5, r6, r7}
 80021a2:	bc08      	pop	{r3}
 80021a4:	469e      	mov	lr, r3
 80021a6:	4770      	bx	lr

080021a8 <_fini>:
 80021a8:	b5f8      	push	{r3, r4, r5, r6, r7, lr}
 80021aa:	46c0      	nop			; (mov r8, r8)
 80021ac:	bcf8      	pop	{r3, r4, r5, r6, r7}
 80021ae:	bc08      	pop	{r3}
 80021b0:	469e      	mov	lr, r3
 80021b2:	4770      	bx	lr
